Archive member included because of file (symbol)

c:/altera/13.0sp1/nios2eds/bin/gnu/h-i686-mingw32/bin/../lib/gcc/nios2-elf/4.1.2\libgcc.a(_fixunsdfsi.o)
                              obj/default/dm9000a.o (__fixunsdfsi)
c:/altera/13.0sp1/nios2eds/bin/gnu/h-i686-mingw32/bin/../lib/gcc/nios2-elf/4.1.2\libgcc.a(_addsub_df.o)
                              c:/altera/13.0sp1/nios2eds/bin/gnu/h-i686-mingw32/bin/../lib/gcc/nios2-elf/4.1.2\libgcc.a(_fixunsdfsi.o) (__subdf3)
c:/altera/13.0sp1/nios2eds/bin/gnu/h-i686-mingw32/bin/../lib/gcc/nios2-elf/4.1.2\libgcc.a(_mul_df.o)
                              obj/default/dm9000a.o (__muldf3)
c:/altera/13.0sp1/nios2eds/bin/gnu/h-i686-mingw32/bin/../lib/gcc/nios2-elf/4.1.2\libgcc.a(_ge_df.o)
                              c:/altera/13.0sp1/nios2eds/bin/gnu/h-i686-mingw32/bin/../lib/gcc/nios2-elf/4.1.2\libgcc.a(_fixunsdfsi.o) (__gedf2)
c:/altera/13.0sp1/nios2eds/bin/gnu/h-i686-mingw32/bin/../lib/gcc/nios2-elf/4.1.2\libgcc.a(_df_to_si.o)
                              c:/altera/13.0sp1/nios2eds/bin/gnu/h-i686-mingw32/bin/../lib/gcc/nios2-elf/4.1.2\libgcc.a(_fixunsdfsi.o) (__fixdfsi)
c:/altera/13.0sp1/nios2eds/bin/gnu/h-i686-mingw32/bin/../lib/gcc/nios2-elf/4.1.2\libgcc.a(_thenan_df.o)
                              c:/altera/13.0sp1/nios2eds/bin/gnu/h-i686-mingw32/bin/../lib/gcc/nios2-elf/4.1.2\libgcc.a(_addsub_df.o) (__thenan_df)
c:/altera/13.0sp1/nios2eds/bin/gnu/h-i686-mingw32/bin/../lib/gcc/nios2-elf/4.1.2\libgcc.a(_usi_to_df.o)
                              obj/default/dm9000a.o (__floatunsidf)
c:/altera/13.0sp1/nios2eds/bin/gnu/h-i686-mingw32/bin/../lib/gcc/nios2-elf/4.1.2\libgcc.a(_muldi3.o)
                              c:/altera/13.0sp1/nios2eds/bin/gnu/h-i686-mingw32/bin/../lib/gcc/nios2-elf/4.1.2\libgcc.a(_mul_df.o) (__muldi3)
c:/altera/13.0sp1/nios2eds/bin/gnu/h-i686-mingw32/bin/../lib/gcc/nios2-elf/4.1.2\libgcc.a(_clzsi2.o)
                              c:/altera/13.0sp1/nios2eds/bin/gnu/h-i686-mingw32/bin/../lib/gcc/nios2-elf/4.1.2\libgcc.a(_usi_to_df.o) (__clzsi2)
c:/altera/13.0sp1/nios2eds/bin/gnu/h-i686-mingw32/bin/../lib/gcc/nios2-elf/4.1.2\libgcc.a(_pack_df.o)
                              c:/altera/13.0sp1/nios2eds/bin/gnu/h-i686-mingw32/bin/../lib/gcc/nios2-elf/4.1.2\libgcc.a(_addsub_df.o) (__pack_d)
c:/altera/13.0sp1/nios2eds/bin/gnu/h-i686-mingw32/bin/../lib/gcc/nios2-elf/4.1.2\libgcc.a(_unpack_df.o)
                              c:/altera/13.0sp1/nios2eds/bin/gnu/h-i686-mingw32/bin/../lib/gcc/nios2-elf/4.1.2\libgcc.a(_addsub_df.o) (__unpack_d)
c:/altera/13.0sp1/nios2eds/bin/gnu/h-i686-mingw32/bin/../lib/gcc/nios2-elf/4.1.2\libgcc.a(_fpcmp_parts_df.o)
                              c:/altera/13.0sp1/nios2eds/bin/gnu/h-i686-mingw32/bin/../lib/gcc/nios2-elf/4.1.2\libgcc.a(_ge_df.o) (__fpcmp_parts_d)
c:/altera/13.0sp1/nios2eds/bin/gnu/h-i686-mingw32/bin/../lib/gcc/nios2-elf/4.1.2\libgcc.a(_clz.o)
                              c:/altera/13.0sp1/nios2eds/bin/gnu/h-i686-mingw32/bin/../lib/gcc/nios2-elf/4.1.2\libgcc.a(_clzsi2.o) (__clz_tab)
c:/altera/13.0sp1/nios2eds/bin/gnu/h-i686-mingw32/bin/../lib/gcc/nios2-elf/4.1.2/../../../../nios2-elf/lib\libc.a(lib_a-ctype_.o)
                              obj/default/network_utilities.o (__ctype_ptr)
c:/altera/13.0sp1/nios2eds/bin/gnu/h-i686-mingw32/bin/../lib/gcc/nios2-elf/4.1.2/../../../../nios2-elf/lib\libc.a(lib_a-exit.o)
                              obj/default/main.o (exit)
c:/altera/13.0sp1/nios2eds/bin/gnu/h-i686-mingw32/bin/../lib/gcc/nios2-elf/4.1.2/../../../../nios2-elf/lib\libc.a(lib_a-fprintf.o)
                              obj/default/alt_error_handler.o (fprintf)
c:/altera/13.0sp1/nios2eds/bin/gnu/h-i686-mingw32/bin/../lib/gcc/nios2-elf/4.1.2/../../../../nios2-elf/lib\libc.a(lib_a-fwrite.o)
                              obj/default/alt_error_handler.o (fwrite)
c:/altera/13.0sp1/nios2eds/bin/gnu/h-i686-mingw32/bin/../lib/gcc/nios2-elf/4.1.2/../../../../nios2-elf/lib\libc.a(lib_a-getc.o)
                              obj/default/network_utilities.o (getc)
c:/altera/13.0sp1/nios2eds/bin/gnu/h-i686-mingw32/bin/../lib/gcc/nios2-elf/4.1.2/../../../../nios2-elf/lib\libc.a(lib_a-impure.o)
                              obj/default/alt_error_handler.o (_impure_ptr)
c:/altera/13.0sp1/nios2eds/bin/gnu/h-i686-mingw32/bin/../lib/gcc/nios2-elf/4.1.2/../../../../nios2-elf/lib\libc.a(lib_a-malloc.o)
                              obj/default/main.o (free)
c:/altera/13.0sp1/nios2eds/bin/gnu/h-i686-mingw32/bin/../lib/gcc/nios2-elf/4.1.2/../../../../nios2-elf/lib\libc.a(lib_a-mallocr.o)
                              c:/altera/13.0sp1/nios2eds/bin/gnu/h-i686-mingw32/bin/../lib/gcc/nios2-elf/4.1.2/../../../../nios2-elf/lib\libc.a(lib_a-malloc.o) (_malloc_r)
c:/altera/13.0sp1/nios2eds/bin/gnu/h-i686-mingw32/bin/../lib/gcc/nios2-elf/4.1.2/../../../../nios2-elf/lib\libc.a(lib_a-memcpy.o)
                              obj/default/simple_socket_server.o (memcpy)
c:/altera/13.0sp1/nios2eds/bin/gnu/h-i686-mingw32/bin/../lib/gcc/nios2-elf/4.1.2/../../../../nios2-elf/lib\libc.a(lib_a-memmove.o)
                              obj/default/simple_socket_server.o (memmove)
c:/altera/13.0sp1/nios2eds/bin/gnu/h-i686-mingw32/bin/../lib/gcc/nios2-elf/4.1.2/../../../../nios2-elf/lib\libc.a(lib_a-memset.o)
                              obj/default/main.o (memset)
c:/altera/13.0sp1/nios2eds/bin/gnu/h-i686-mingw32/bin/../lib/gcc/nios2-elf/4.1.2/../../../../nios2-elf/lib\libc.a(lib_a-perror.o)
                              obj/default/alt_error_handler.o (perror)
c:/altera/13.0sp1/nios2eds/bin/gnu/h-i686-mingw32/bin/../lib/gcc/nios2-elf/4.1.2/../../../../nios2-elf/lib\libc.a(lib_a-printf.o)
                              obj/default/alt_error_handler.o (printf)
c:/altera/13.0sp1/nios2eds/bin/gnu/h-i686-mingw32/bin/../lib/gcc/nios2-elf/4.1.2/../../../../nios2-elf/lib\libc.a(lib_a-putc.o)
                              obj/default/network_utilities.o (putc)
c:/altera/13.0sp1/nios2eds/bin/gnu/h-i686-mingw32/bin/../lib/gcc/nios2-elf/4.1.2/../../../../nios2-elf/lib\libc.a(lib_a-putchar.o)
                              obj/default/network_utilities.o (putchar)
c:/altera/13.0sp1/nios2eds/bin/gnu/h-i686-mingw32/bin/../lib/gcc/nios2-elf/4.1.2/../../../../nios2-elf/lib\libc.a(lib_a-puts.o)
                              obj/default/alt_error_handler.o (puts)
c:/altera/13.0sp1/nios2eds/bin/gnu/h-i686-mingw32/bin/../lib/gcc/nios2-elf/4.1.2/../../../../nios2-elf/lib\libc.a(lib_a-rget.o)
                              c:/altera/13.0sp1/nios2eds/bin/gnu/h-i686-mingw32/bin/../lib/gcc/nios2-elf/4.1.2/../../../../nios2-elf/lib\libc.a(lib_a-getc.o) (__srget_r)
c:/altera/13.0sp1/nios2eds/bin/gnu/h-i686-mingw32/bin/../lib/gcc/nios2-elf/4.1.2/../../../../nios2-elf/lib\libc.a(lib_a-sbrkr.o)
                              c:/altera/13.0sp1/nios2eds/bin/gnu/h-i686-mingw32/bin/../lib/gcc/nios2-elf/4.1.2/../../../../nios2-elf/lib\libc.a(lib_a-mallocr.o) (_sbrk_r)
c:/altera/13.0sp1/nios2eds/bin/gnu/h-i686-mingw32/bin/../lib/gcc/nios2-elf/4.1.2/../../../../nios2-elf/lib\libc.a(lib_a-sprintf.o)
                              obj/default/main.o (sprintf)
c:/altera/13.0sp1/nios2eds/bin/gnu/h-i686-mingw32/bin/../lib/gcc/nios2-elf/4.1.2/../../../../nios2-elf/lib\libc.a(lib_a-strchr.o)
                              obj/default/simple_socket_server.o (strchr)
c:/altera/13.0sp1/nios2eds/bin/gnu/h-i686-mingw32/bin/../lib/gcc/nios2-elf/4.1.2/../../../../nios2-elf/lib\libc.a(lib_a-strcmp.o)
                              obj/default/main.o (strcmp)
c:/altera/13.0sp1/nios2eds/bin/gnu/h-i686-mingw32/bin/../lib/gcc/nios2-elf/4.1.2/../../../../nios2-elf/lib\libc.a(lib_a-strerror.o)
                              c:/altera/13.0sp1/nios2eds/bin/gnu/h-i686-mingw32/bin/../lib/gcc/nios2-elf/4.1.2/../../../../nios2-elf/lib\libc.a(lib_a-perror.o) (strerror)
c:/altera/13.0sp1/nios2eds/bin/gnu/h-i686-mingw32/bin/../lib/gcc/nios2-elf/4.1.2/../../../../nios2-elf/lib\libc.a(lib_a-strlen.o)
                              obj/default/main.o (strlen)
c:/altera/13.0sp1/nios2eds/bin/gnu/h-i686-mingw32/bin/../lib/gcc/nios2-elf/4.1.2/../../../../nios2-elf/lib\libc.a(lib_a-strncpy.o)
                              obj/default/main.o (strncpy)
c:/altera/13.0sp1/nios2eds/bin/gnu/h-i686-mingw32/bin/../lib/gcc/nios2-elf/4.1.2/../../../../nios2-elf/lib\libc.a(lib_a-strtol.o)
                              obj/default/main.o (strtol)
c:/altera/13.0sp1/nios2eds/bin/gnu/h-i686-mingw32/bin/../lib/gcc/nios2-elf/4.1.2/../../../../nios2-elf/lib\libc.a(lib_a-u_strerr.o)
                              c:/altera/13.0sp1/nios2eds/bin/gnu/h-i686-mingw32/bin/../lib/gcc/nios2-elf/4.1.2/../../../../nios2-elf/lib\libc.a(lib_a-strerror.o) (_user_strerror)
c:/altera/13.0sp1/nios2eds/bin/gnu/h-i686-mingw32/bin/../lib/gcc/nios2-elf/4.1.2/../../../../nios2-elf/lib\libc.a(lib_a-vfprintf.o)
                              c:/altera/13.0sp1/nios2eds/bin/gnu/h-i686-mingw32/bin/../lib/gcc/nios2-elf/4.1.2/../../../../nios2-elf/lib\libc.a(lib_a-printf.o) (___vfprintf_internal_r)
c:/altera/13.0sp1/nios2eds/bin/gnu/h-i686-mingw32/bin/../lib/gcc/nios2-elf/4.1.2/../../../../nios2-elf/lib\libc.a(lib_a-wbuf.o)
                              c:/altera/13.0sp1/nios2eds/bin/gnu/h-i686-mingw32/bin/../lib/gcc/nios2-elf/4.1.2/../../../../nios2-elf/lib\libc.a(lib_a-putc.o) (__swbuf_r)
c:/altera/13.0sp1/nios2eds/bin/gnu/h-i686-mingw32/bin/../lib/gcc/nios2-elf/4.1.2/../../../../nios2-elf/lib\libc.a(lib_a-wsetup.o)
                              c:/altera/13.0sp1/nios2eds/bin/gnu/h-i686-mingw32/bin/../lib/gcc/nios2-elf/4.1.2/../../../../nios2-elf/lib\libc.a(lib_a-vfprintf.o) (__swsetup_r)
c:/altera/13.0sp1/nios2eds/bin/gnu/h-i686-mingw32/bin/../lib/gcc/nios2-elf/4.1.2/../../../../nios2-elf/lib\libc.a(lib_a-__call_atexit.o)
                              c:/altera/13.0sp1/nios2eds/bin/gnu/h-i686-mingw32/bin/../lib/gcc/nios2-elf/4.1.2/../../../../nios2-elf/lib\libc.a(lib_a-exit.o) (__call_exitprocs)
c:/altera/13.0sp1/nios2eds/bin/gnu/h-i686-mingw32/bin/../lib/gcc/nios2-elf/4.1.2/../../../../nios2-elf/lib\libc.a(lib_a-dtoa.o)
                              c:/altera/13.0sp1/nios2eds/bin/gnu/h-i686-mingw32/bin/../lib/gcc/nios2-elf/4.1.2/../../../../nios2-elf/lib\libc.a(lib_a-vfprintf.o) (_dtoa_r)
c:/altera/13.0sp1/nios2eds/bin/gnu/h-i686-mingw32/bin/../lib/gcc/nios2-elf/4.1.2/../../../../nios2-elf/lib\libc.a(lib_a-fflush.o)
                              c:/altera/13.0sp1/nios2eds/bin/gnu/h-i686-mingw32/bin/../lib/gcc/nios2-elf/4.1.2/../../../../nios2-elf/lib\libc.a(lib_a-vfprintf.o) (_fflush_r)
c:/altera/13.0sp1/nios2eds/bin/gnu/h-i686-mingw32/bin/../lib/gcc/nios2-elf/4.1.2/../../../../nios2-elf/lib\libc.a(lib_a-findfp.o)
                              c:/altera/13.0sp1/nios2eds/bin/gnu/h-i686-mingw32/bin/../lib/gcc/nios2-elf/4.1.2/../../../../nios2-elf/lib\libc.a(lib_a-fwrite.o) (__sinit)
c:/altera/13.0sp1/nios2eds/bin/gnu/h-i686-mingw32/bin/../lib/gcc/nios2-elf/4.1.2/../../../../nios2-elf/lib\libc.a(lib_a-fputc.o)
                              c:/altera/13.0sp1/nios2eds/bin/gnu/h-i686-mingw32/bin/../lib/gcc/nios2-elf/4.1.2/../../../../nios2-elf/lib\libc.a(lib_a-perror.o) (fputc)
c:/altera/13.0sp1/nios2eds/bin/gnu/h-i686-mingw32/bin/../lib/gcc/nios2-elf/4.1.2/../../../../nios2-elf/lib\libc.a(lib_a-fputs.o)
                              c:/altera/13.0sp1/nios2eds/bin/gnu/h-i686-mingw32/bin/../lib/gcc/nios2-elf/4.1.2/../../../../nios2-elf/lib\libc.a(lib_a-perror.o) (fputs)
c:/altera/13.0sp1/nios2eds/bin/gnu/h-i686-mingw32/bin/../lib/gcc/nios2-elf/4.1.2/../../../../nios2-elf/lib\libc.a(lib_a-freer.o)
                              c:/altera/13.0sp1/nios2eds/bin/gnu/h-i686-mingw32/bin/../lib/gcc/nios2-elf/4.1.2/../../../../nios2-elf/lib\libc.a(lib_a-malloc.o) (_free_r)
c:/altera/13.0sp1/nios2eds/bin/gnu/h-i686-mingw32/bin/../lib/gcc/nios2-elf/4.1.2/../../../../nios2-elf/lib\libc.a(lib_a-fvwrite.o)
                              c:/altera/13.0sp1/nios2eds/bin/gnu/h-i686-mingw32/bin/../lib/gcc/nios2-elf/4.1.2/../../../../nios2-elf/lib\libc.a(lib_a-fwrite.o) (__sfvwrite_r)
c:/altera/13.0sp1/nios2eds/bin/gnu/h-i686-mingw32/bin/../lib/gcc/nios2-elf/4.1.2/../../../../nios2-elf/lib\libc.a(lib_a-fwalk.o)
                              c:/altera/13.0sp1/nios2eds/bin/gnu/h-i686-mingw32/bin/../lib/gcc/nios2-elf/4.1.2/../../../../nios2-elf/lib\libc.a(lib_a-fflush.o) (_fwalk_reent)
c:/altera/13.0sp1/nios2eds/bin/gnu/h-i686-mingw32/bin/../lib/gcc/nios2-elf/4.1.2/../../../../nios2-elf/lib\libc.a(lib_a-int_errno.o)
                              c:/altera/13.0sp1/nios2eds/bin/gnu/h-i686-mingw32/bin/../lib/gcc/nios2-elf/4.1.2/../../../../nios2-elf/lib\libc.a(lib_a-sbrkr.o) (errno)
c:/altera/13.0sp1/nios2eds/bin/gnu/h-i686-mingw32/bin/../lib/gcc/nios2-elf/4.1.2/../../../../nios2-elf/lib\libc.a(lib_a-locale.o)
                              c:/altera/13.0sp1/nios2eds/bin/gnu/h-i686-mingw32/bin/../lib/gcc/nios2-elf/4.1.2/../../../../nios2-elf/lib\libc.a(lib_a-vfprintf.o) (_localeconv_r)
c:/altera/13.0sp1/nios2eds/bin/gnu/h-i686-mingw32/bin/../lib/gcc/nios2-elf/4.1.2/../../../../nios2-elf/lib\libc.a(lib_a-makebuf.o)
                              c:/altera/13.0sp1/nios2eds/bin/gnu/h-i686-mingw32/bin/../lib/gcc/nios2-elf/4.1.2/../../../../nios2-elf/lib\libc.a(lib_a-wsetup.o) (__smakebuf_r)
c:/altera/13.0sp1/nios2eds/bin/gnu/h-i686-mingw32/bin/../lib/gcc/nios2-elf/4.1.2/../../../../nios2-elf/lib\libc.a(lib_a-memchr.o)
                              c:/altera/13.0sp1/nios2eds/bin/gnu/h-i686-mingw32/bin/../lib/gcc/nios2-elf/4.1.2/../../../../nios2-elf/lib\libc.a(lib_a-vfprintf.o) (memchr)
c:/altera/13.0sp1/nios2eds/bin/gnu/h-i686-mingw32/bin/../lib/gcc/nios2-elf/4.1.2/../../../../nios2-elf/lib\libc.a(lib_a-mprec.o)
                              c:/altera/13.0sp1/nios2eds/bin/gnu/h-i686-mingw32/bin/../lib/gcc/nios2-elf/4.1.2/../../../../nios2-elf/lib\libc.a(lib_a-dtoa.o) (_Bfree)
c:/altera/13.0sp1/nios2eds/bin/gnu/h-i686-mingw32/bin/../lib/gcc/nios2-elf/4.1.2/../../../../nios2-elf/lib\libc.a(lib_a-reallocr.o)
                              c:/altera/13.0sp1/nios2eds/bin/gnu/h-i686-mingw32/bin/../lib/gcc/nios2-elf/4.1.2/../../../../nios2-elf/lib\libc.a(lib_a-fvwrite.o) (_realloc_r)
c:/altera/13.0sp1/nios2eds/bin/gnu/h-i686-mingw32/bin/../lib/gcc/nios2-elf/4.1.2/../../../../nios2-elf/lib\libc.a(lib_a-refill.o)
                              c:/altera/13.0sp1/nios2eds/bin/gnu/h-i686-mingw32/bin/../lib/gcc/nios2-elf/4.1.2/../../../../nios2-elf/lib\libc.a(lib_a-rget.o) (__srefill_r)
c:/altera/13.0sp1/nios2eds/bin/gnu/h-i686-mingw32/bin/../lib/gcc/nios2-elf/4.1.2/../../../../nios2-elf/lib\libc.a(lib_a-s_isinfd.o)
                              c:/altera/13.0sp1/nios2eds/bin/gnu/h-i686-mingw32/bin/../lib/gcc/nios2-elf/4.1.2/../../../../nios2-elf/lib\libc.a(lib_a-vfprintf.o) (__isinfd)
c:/altera/13.0sp1/nios2eds/bin/gnu/h-i686-mingw32/bin/../lib/gcc/nios2-elf/4.1.2/../../../../nios2-elf/lib\libc.a(lib_a-s_isnand.o)
                              c:/altera/13.0sp1/nios2eds/bin/gnu/h-i686-mingw32/bin/../lib/gcc/nios2-elf/4.1.2/../../../../nios2-elf/lib\libc.a(lib_a-vfprintf.o) (__isnand)
c:/altera/13.0sp1/nios2eds/bin/gnu/h-i686-mingw32/bin/../lib/gcc/nios2-elf/4.1.2/../../../../nios2-elf/lib\libc.a(lib_a-stdio.o)
                              c:/altera/13.0sp1/nios2eds/bin/gnu/h-i686-mingw32/bin/../lib/gcc/nios2-elf/4.1.2/../../../../nios2-elf/lib\libc.a(lib_a-findfp.o) (__sclose)
c:/altera/13.0sp1/nios2eds/bin/gnu/h-i686-mingw32/bin/../lib/gcc/nios2-elf/4.1.2/../../../../nios2-elf/lib\libc.a(lib_a-writer.o)
                              c:/altera/13.0sp1/nios2eds/bin/gnu/h-i686-mingw32/bin/../lib/gcc/nios2-elf/4.1.2/../../../../nios2-elf/lib\libc.a(lib_a-stdio.o) (_write_r)
c:/altera/13.0sp1/nios2eds/bin/gnu/h-i686-mingw32/bin/../lib/gcc/nios2-elf/4.1.2/../../../../nios2-elf/lib\libc.a(lib_a-callocr.o)
                              c:/altera/13.0sp1/nios2eds/bin/gnu/h-i686-mingw32/bin/../lib/gcc/nios2-elf/4.1.2/../../../../nios2-elf/lib\libc.a(lib_a-mprec.o) (_calloc_r)
c:/altera/13.0sp1/nios2eds/bin/gnu/h-i686-mingw32/bin/../lib/gcc/nios2-elf/4.1.2/../../../../nios2-elf/lib\libc.a(lib_a-closer.o)
                              c:/altera/13.0sp1/nios2eds/bin/gnu/h-i686-mingw32/bin/../lib/gcc/nios2-elf/4.1.2/../../../../nios2-elf/lib\libc.a(lib_a-stdio.o) (_close_r)
c:/altera/13.0sp1/nios2eds/bin/gnu/h-i686-mingw32/bin/../lib/gcc/nios2-elf/4.1.2/../../../../nios2-elf/lib\libc.a(lib_a-fclose.o)
                              c:/altera/13.0sp1/nios2eds/bin/gnu/h-i686-mingw32/bin/../lib/gcc/nios2-elf/4.1.2/../../../../nios2-elf/lib\libc.a(lib_a-findfp.o) (fclose)
c:/altera/13.0sp1/nios2eds/bin/gnu/h-i686-mingw32/bin/../lib/gcc/nios2-elf/4.1.2/../../../../nios2-elf/lib\libc.a(lib_a-fstatr.o)
                              c:/altera/13.0sp1/nios2eds/bin/gnu/h-i686-mingw32/bin/../lib/gcc/nios2-elf/4.1.2/../../../../nios2-elf/lib\libc.a(lib_a-makebuf.o) (_fstat_r)
c:/altera/13.0sp1/nios2eds/bin/gnu/h-i686-mingw32/bin/../lib/gcc/nios2-elf/4.1.2/../../../../nios2-elf/lib\libc.a(lib_a-isattyr.o)
                              c:/altera/13.0sp1/nios2eds/bin/gnu/h-i686-mingw32/bin/../lib/gcc/nios2-elf/4.1.2/../../../../nios2-elf/lib\libc.a(lib_a-makebuf.o) (_isatty_r)
c:/altera/13.0sp1/nios2eds/bin/gnu/h-i686-mingw32/bin/../lib/gcc/nios2-elf/4.1.2/../../../../nios2-elf/lib\libc.a(lib_a-lseekr.o)
                              c:/altera/13.0sp1/nios2eds/bin/gnu/h-i686-mingw32/bin/../lib/gcc/nios2-elf/4.1.2/../../../../nios2-elf/lib\libc.a(lib_a-stdio.o) (_lseek_r)
c:/altera/13.0sp1/nios2eds/bin/gnu/h-i686-mingw32/bin/../lib/gcc/nios2-elf/4.1.2/../../../../nios2-elf/lib\libc.a(lib_a-readr.o)
                              c:/altera/13.0sp1/nios2eds/bin/gnu/h-i686-mingw32/bin/../lib/gcc/nios2-elf/4.1.2/../../../../nios2-elf/lib\libc.a(lib_a-stdio.o) (_read_r)
c:/altera/13.0sp1/nios2eds/bin/gnu/h-i686-mingw32/bin/../lib/gcc/nios2-elf/4.1.2\libgcc.a(_udivdi3.o)
                              c:/altera/13.0sp1/nios2eds/bin/gnu/h-i686-mingw32/bin/../lib/gcc/nios2-elf/4.1.2/../../../../nios2-elf/lib\libc.a(lib_a-vfprintf.o) (__udivdi3)
c:/altera/13.0sp1/nios2eds/bin/gnu/h-i686-mingw32/bin/../lib/gcc/nios2-elf/4.1.2\libgcc.a(_umoddi3.o)
                              c:/altera/13.0sp1/nios2eds/bin/gnu/h-i686-mingw32/bin/../lib/gcc/nios2-elf/4.1.2/../../../../nios2-elf/lib\libc.a(lib_a-vfprintf.o) (__umoddi3)
c:/altera/13.0sp1/nios2eds/bin/gnu/h-i686-mingw32/bin/../lib/gcc/nios2-elf/4.1.2\libgcc.a(_div_df.o)
                              c:/altera/13.0sp1/nios2eds/bin/gnu/h-i686-mingw32/bin/../lib/gcc/nios2-elf/4.1.2/../../../../nios2-elf/lib\libc.a(lib_a-dtoa.o) (__divdf3)
c:/altera/13.0sp1/nios2eds/bin/gnu/h-i686-mingw32/bin/../lib/gcc/nios2-elf/4.1.2\libgcc.a(_eq_df.o)
                              c:/altera/13.0sp1/nios2eds/bin/gnu/h-i686-mingw32/bin/../lib/gcc/nios2-elf/4.1.2/../../../../nios2-elf/lib\libc.a(lib_a-vfprintf.o) (__eqdf2)
c:/altera/13.0sp1/nios2eds/bin/gnu/h-i686-mingw32/bin/../lib/gcc/nios2-elf/4.1.2\libgcc.a(_ne_df.o)
                              c:/altera/13.0sp1/nios2eds/bin/gnu/h-i686-mingw32/bin/../lib/gcc/nios2-elf/4.1.2/../../../../nios2-elf/lib\libc.a(lib_a-vfprintf.o) (__nedf2)
c:/altera/13.0sp1/nios2eds/bin/gnu/h-i686-mingw32/bin/../lib/gcc/nios2-elf/4.1.2\libgcc.a(_gt_df.o)
                              c:/altera/13.0sp1/nios2eds/bin/gnu/h-i686-mingw32/bin/../lib/gcc/nios2-elf/4.1.2/../../../../nios2-elf/lib\libc.a(lib_a-dtoa.o) (__gtdf2)
c:/altera/13.0sp1/nios2eds/bin/gnu/h-i686-mingw32/bin/../lib/gcc/nios2-elf/4.1.2\libgcc.a(_lt_df.o)
                              c:/altera/13.0sp1/nios2eds/bin/gnu/h-i686-mingw32/bin/../lib/gcc/nios2-elf/4.1.2/../../../../nios2-elf/lib\libc.a(lib_a-vfprintf.o) (__ltdf2)
c:/altera/13.0sp1/nios2eds/bin/gnu/h-i686-mingw32/bin/../lib/gcc/nios2-elf/4.1.2\libgcc.a(_si_to_df.o)
                              c:/altera/13.0sp1/nios2eds/bin/gnu/h-i686-mingw32/bin/../lib/gcc/nios2-elf/4.1.2/../../../../nios2-elf/lib\libc.a(lib_a-dtoa.o) (__floatsidf)
c:/altera/13.0sp1/nios2eds/bin/gnu/h-i686-mingw32/bin/../lib/gcc/nios2-elf/4.1.2\libgcc.a(lib2-divmod.o)
                              c:/altera/13.0sp1/nios2eds/bin/gnu/h-i686-mingw32/bin/../lib/gcc/nios2-elf/4.1.2/../../../../nios2-elf/lib\libc.a(lib_a-vfprintf.o) (__divsi3)
../SemaforoNet_bsp/\libucosii_bsp.a(alt_exit.o)
                              c:/altera/13.0sp1/nios2eds/bin/gnu/h-i686-mingw32/bin/../lib/gcc/nios2-elf/4.1.2/../../../../nios2-elf/lib\libc.a(lib_a-exit.o) (_exit)
../SemaforoNet_bsp/\libucosii_bsp.a(alt_flash_dev.o)
                              obj/default/network_utilities.o (alt_flash_open_dev)
../SemaforoNet_bsp/\libucosii_bsp.a(alt_fstat.o)
                              c:/altera/13.0sp1/nios2eds/bin/gnu/h-i686-mingw32/bin/../lib/gcc/nios2-elf/4.1.2/../../../../nios2-elf/lib\libc.a(lib_a-fstatr.o) (fstat)
../SemaforoNet_bsp/\libucosii_bsp.a(alt_irq_register.o)
                              obj/default/dm9000a.o (alt_irq_register)
../SemaforoNet_bsp/\libucosii_bsp.a(alt_irq_vars.o)
                              ../SemaforoNet_bsp/\libucosii_bsp.a(alt_irq_register.o) (alt_irq_active)
../SemaforoNet_bsp/\libucosii_bsp.a(alt_isatty.o)
                              c:/altera/13.0sp1/nios2eds/bin/gnu/h-i686-mingw32/bin/../lib/gcc/nios2-elf/4.1.2/../../../../nios2-elf/lib\libc.a(lib_a-isattyr.o) (isatty)
../SemaforoNet_bsp/\libucosii_bsp.a(alt_lseek.o)
                              c:/altera/13.0sp1/nios2eds/bin/gnu/h-i686-mingw32/bin/../lib/gcc/nios2-elf/4.1.2/../../../../nios2-elf/lib\libc.a(lib_a-lseekr.o) (lseek)
../SemaforoNet_bsp/\libucosii_bsp.a(alt_main.o)
                              ../SemaforoNet_bsp//obj/HAL/src/crt0.o (alt_main)
../SemaforoNet_bsp/\libucosii_bsp.a(alt_sbrk.o)
                              c:/altera/13.0sp1/nios2eds/bin/gnu/h-i686-mingw32/bin/../lib/gcc/nios2-elf/4.1.2/../../../../nios2-elf/lib\libc.a(lib_a-sbrkr.o) (sbrk)
../SemaforoNet_bsp/\libucosii_bsp.a(alt_usleep.o)
                              obj/default/dm9000a.o (usleep)
../SemaforoNet_bsp/\libucosii_bsp.a(alt_env_lock.o)
                              ../SemaforoNet_bsp/\libucosii_bsp.a(alt_main.o) (alt_envsem)
../SemaforoNet_bsp/\libucosii_bsp.a(alt_malloc_lock.o)
                              c:/altera/13.0sp1/nios2eds/bin/gnu/h-i686-mingw32/bin/../lib/gcc/nios2-elf/4.1.2/../../../../nios2-elf/lib\libc.a(lib_a-mallocr.o) (__malloc_lock)
../SemaforoNet_bsp/\libucosii_bsp.a(os_core.o)
                              ../SemaforoNet_bsp/\libucosii_bsp.a(alt_main.o) (OSInit)
../SemaforoNet_bsp/\libucosii_bsp.a(os_dbg.o)
                              ../SemaforoNet_bsp/\libucosii_bsp.a(os_core.o) (OSDebugInit)
../SemaforoNet_bsp/\libucosii_bsp.a(os_flag.o)
                              obj/default/simple_socket_server.o (OSFlagCreate)
../SemaforoNet_bsp/\libucosii_bsp.a(os_mem.o)
                              ../SemaforoNet_bsp/\libucosii_bsp.a(os_core.o) (OS_MemInit)
../SemaforoNet_bsp/\libucosii_bsp.a(os_q.o)
                              obj/default/simple_socket_server.o (OSQCreate)
../SemaforoNet_bsp/\libucosii_bsp.a(os_sem.o)
                              obj/default/simple_socket_server.o (OSSemCreate)
../SemaforoNet_bsp/\libucosii_bsp.a(os_task.o)
                              obj/default/main.o (OSTaskCreateExt)
../SemaforoNet_bsp/\libucosii_bsp.a(os_time.o)
                              obj/default/main.o (OSTimeDly)
../SemaforoNet_bsp/\libucosii_bsp.a(alt_sys_init.o)
                              ../SemaforoNet_bsp/\libucosii_bsp.a(alt_main.o) (alt_irq_init)
../SemaforoNet_bsp/\libucosii_bsp.a(altera_avalon_cfi_flash.o)
                              ../SemaforoNet_bsp/\libucosii_bsp.a(alt_sys_init.o) (alt_flash_cfi_init)
../SemaforoNet_bsp/\libucosii_bsp.a(altera_avalon_cfi_flash_table.o)
                              ../SemaforoNet_bsp/\libucosii_bsp.a(altera_avalon_cfi_flash.o) (alt_set_flash_width_func)
../SemaforoNet_bsp/\libucosii_bsp.a(altera_avalon_epcs_flash_controller.o)
                              ../SemaforoNet_bsp/\libucosii_bsp.a(alt_sys_init.o) (alt_epcs_flash_init)
../SemaforoNet_bsp/\libucosii_bsp.a(altera_avalon_jtag_uart_fd.o)
                              ../SemaforoNet_bsp/\libucosii_bsp.a(alt_sys_init.o) (altera_avalon_jtag_uart_read_fd)
../SemaforoNet_bsp/\libucosii_bsp.a(altera_avalon_jtag_uart_init.o)
                              ../SemaforoNet_bsp/\libucosii_bsp.a(alt_sys_init.o) (altera_avalon_jtag_uart_init)
../SemaforoNet_bsp/\libucosii_bsp.a(altera_avalon_jtag_uart_ioctl.o)
                              ../SemaforoNet_bsp/\libucosii_bsp.a(altera_avalon_jtag_uart_fd.o) (altera_avalon_jtag_uart_ioctl)
../SemaforoNet_bsp/\libucosii_bsp.a(altera_avalon_jtag_uart_read.o)
                              ../SemaforoNet_bsp/\libucosii_bsp.a(altera_avalon_jtag_uart_fd.o) (altera_avalon_jtag_uart_read)
../SemaforoNet_bsp/\libucosii_bsp.a(altera_avalon_jtag_uart_write.o)
                              ../SemaforoNet_bsp/\libucosii_bsp.a(altera_avalon_jtag_uart_fd.o) (altera_avalon_jtag_uart_write)
../SemaforoNet_bsp/\libucosii_bsp.a(altera_avalon_lcd_16207.o)
                              ../SemaforoNet_bsp/\libucosii_bsp.a(alt_sys_init.o) (altera_avalon_lcd_16207_init)
../SemaforoNet_bsp/\libucosii_bsp.a(altera_avalon_lcd_16207_fd.o)
                              ../SemaforoNet_bsp/\libucosii_bsp.a(alt_sys_init.o) (altera_avalon_lcd_16207_write_fd)
../SemaforoNet_bsp/\libucosii_bsp.a(altera_avalon_timer_sc.o)
                              ../SemaforoNet_bsp/\libucosii_bsp.a(alt_sys_init.o) (alt_avalon_timer_sc_init)
../SemaforoNet_bsp/\libucosii_bsp.a(altera_avalon_uart_fd.o)
                              ../SemaforoNet_bsp/\libucosii_bsp.a(alt_sys_init.o) (altera_avalon_uart_read_fd)
../SemaforoNet_bsp/\libucosii_bsp.a(altera_avalon_uart_init.o)
                              ../SemaforoNet_bsp/\libucosii_bsp.a(alt_sys_init.o) (altera_avalon_uart_init)
../SemaforoNet_bsp/\libucosii_bsp.a(altera_avalon_uart_read.o)
                              ../SemaforoNet_bsp/\libucosii_bsp.a(altera_avalon_uart_fd.o) (altera_avalon_uart_read)
../SemaforoNet_bsp/\libucosii_bsp.a(altera_avalon_uart_write.o)
                              ../SemaforoNet_bsp/\libucosii_bsp.a(altera_avalon_uart_fd.o) (altera_avalon_uart_write)
../SemaforoNet_bsp/\libucosii_bsp.a(epcs_commands.o)
                              ../SemaforoNet_bsp/\libucosii_bsp.a(altera_avalon_epcs_flash_controller.o) (epcs_sector_erase)
../SemaforoNet_bsp/\libucosii_bsp.a(alt_iniche_close.o)
                              obj/default/main.o (close)
../SemaforoNet_bsp/\libucosii_bsp.a(alt_iniche_dev.o)
                              obj/default/main.o (alt_iniche_dev_list)
../SemaforoNet_bsp/\libucosii_bsp.a(alt_iniche_read.o)
                              c:/altera/13.0sp1/nios2eds/bin/gnu/h-i686-mingw32/bin/../lib/gcc/nios2-elf/4.1.2/../../../../nios2-elf/lib\libc.a(lib_a-readr.o) (read)
../SemaforoNet_bsp/\libucosii_bsp.a(alt_iniche_write.o)
                              c:/altera/13.0sp1/nios2eds/bin/gnu/h-i686-mingw32/bin/../lib/gcc/nios2-elf/4.1.2/../../../../nios2-elf/lib\libc.a(lib_a-writer.o) (write)
../SemaforoNet_bsp/\libucosii_bsp.a(ipnet.o)
                              obj/default/dm9000a.o (rcvdq)
../SemaforoNet_bsp/\libucosii_bsp.a(ipstart.o)
                              ../SemaforoNet_bsp/\libucosii_bsp.a(ipnet.o) (ifNumber)
../SemaforoNet_bsp/\libucosii_bsp.a(igmp_cmn.o)
                              ../SemaforoNet_bsp/\libucosii_bsp.a(ipstart.o) (igmp_init)
../SemaforoNet_bsp/\libucosii_bsp.a(bsdsock.o)
                              obj/default/simple_socket_server.o (bsd_accept)
../SemaforoNet_bsp/\libucosii_bsp.a(cksum.o)
                              ../SemaforoNet_bsp/\libucosii_bsp.a(igmp_cmn.o) (cksum)
../SemaforoNet_bsp/\libucosii_bsp.a(in_utils.o)
                              ../SemaforoNet_bsp/\libucosii_bsp.a(igmp_cmn.o) (ns_printf)
../SemaforoNet_bsp/\libucosii_bsp.a(netmain.o)
                              obj/default/main.o (iniche_net_ready)
../SemaforoNet_bsp/\libucosii_bsp.a(parseip.o)
                              obj/default/main.o (inet_addr)
../SemaforoNet_bsp/\libucosii_bsp.a(tk_crnos.o)
                              ../SemaforoNet_bsp/\libucosii_bsp.a(ipnet.o) (tk_yield)
../SemaforoNet_bsp/\libucosii_bsp.a(dhcpclnt.o)
                              ../SemaforoNet_bsp/\libucosii_bsp.a(netmain.o) (dhc_second)
../SemaforoNet_bsp/\libucosii_bsp.a(dhcputil.o)
                              ../SemaforoNet_bsp/\libucosii_bsp.a(dhcpclnt.o) (find_opt)
../SemaforoNet_bsp/\libucosii_bsp.a(pktalloc.o)
                              ../SemaforoNet_bsp/\libucosii_bsp.a(ipnet.o) (pk_init)
../SemaforoNet_bsp/\libucosii_bsp.a(q.o)
                              ../SemaforoNet_bsp/\libucosii_bsp.a(ipnet.o) (getq)
../SemaforoNet_bsp/\libucosii_bsp.a(udp_open.o)
                              ../SemaforoNet_bsp/\libucosii_bsp.a(dhcpclnt.o) (udp_open)
../SemaforoNet_bsp/\libucosii_bsp.a(asm_cksum.o)
                              ../SemaforoNet_bsp/\libucosii_bsp.a(cksum.o) (asm_cksum)
../SemaforoNet_bsp/\libucosii_bsp.a(brdutils.o)
                              ../SemaforoNet_bsp/\libucosii_bsp.a(ipnet.o) (dtrap)
../SemaforoNet_bsp/\libucosii_bsp.a(osportco.o)
                              ../SemaforoNet_bsp/\libucosii_bsp.a(tk_crnos.o) (tcp_sleep_count)
../SemaforoNet_bsp/\libucosii_bsp.a(targnios.o)
                              obj/default/main.o (alt_iniche_init)
../SemaforoNet_bsp/\libucosii_bsp.a(nptcp.o)
                              ../SemaforoNet_bsp/\libucosii_bsp.a(bsdsock.o) (soq)
../SemaforoNet_bsp/\libucosii_bsp.a(rawsock.o)
                              ../SemaforoNet_bsp/\libucosii_bsp.a(nptcp.o) (rawip_usrreq)
../SemaforoNet_bsp/\libucosii_bsp.a(sockcall.o)
                              obj/default/main.o (t_socket)
../SemaforoNet_bsp/\libucosii_bsp.a(socket.o)
                              ../SemaforoNet_bsp/\libucosii_bsp.a(sockcall.o) (socreate)
../SemaforoNet_bsp/\libucosii_bsp.a(socket2.o)
                              ../SemaforoNet_bsp/\libucosii_bsp.a(sockcall.o) (soqremque)
../SemaforoNet_bsp/\libucosii_bsp.a(soselect.o)
                              ../SemaforoNet_bsp/\libucosii_bsp.a(bsdsock.o) (t_select)
../SemaforoNet_bsp/\libucosii_bsp.a(tcp_in.o)
                              ../SemaforoNet_bsp/\libucosii_bsp.a(nptcp.o) (tcp_input)
../SemaforoNet_bsp/\libucosii_bsp.a(tcp_out.o)
                              ../SemaforoNet_bsp/\libucosii_bsp.a(tcp_in.o) (tcp_output)
../SemaforoNet_bsp/\libucosii_bsp.a(tcp_subr.o)
                              ../SemaforoNet_bsp/\libucosii_bsp.a(nptcp.o) (tcp_init)
../SemaforoNet_bsp/\libucosii_bsp.a(tcp_timr.o)
                              ../SemaforoNet_bsp/\libucosii_bsp.a(tcp_in.o) (tcp_keepidle)
../SemaforoNet_bsp/\libucosii_bsp.a(tcp_usr.o)
                              ../SemaforoNet_bsp/\libucosii_bsp.a(nptcp.o) (tcp_usrreq)
../SemaforoNet_bsp/\libucosii_bsp.a(tcpport.o)
                              ../SemaforoNet_bsp/\libucosii_bsp.a(ipstart.o) (tcpinit)
../SemaforoNet_bsp/\libucosii_bsp.a(udpsock.o)
                              ../SemaforoNet_bsp/\libucosii_bsp.a(nptcp.o) (udp_usrreq)
../SemaforoNet_bsp/\libucosii_bsp.a(alt_alarm_start.o)
                              ../SemaforoNet_bsp/\libucosii_bsp.a(altera_avalon_jtag_uart_init.o) (alt_alarm_start)
../SemaforoNet_bsp/\libucosii_bsp.a(alt_busy_sleep.o)
                              ../SemaforoNet_bsp/\libucosii_bsp.a(alt_usleep.o) (alt_busy_sleep)
../SemaforoNet_bsp/\libucosii_bsp.a(alt_close.o)
                              ../SemaforoNet_bsp/\libucosii_bsp.a(alt_iniche_close.o) (alt_close)
../SemaforoNet_bsp/\libucosii_bsp.a(alt_dcache_flush.o)
                              ../SemaforoNet_bsp/\libucosii_bsp.a(altera_avalon_cfi_flash.o) (alt_dcache_flush)
../SemaforoNet_bsp/\libucosii_bsp.a(alt_dev.o)
                              ../SemaforoNet_bsp/\libucosii_bsp.a(alt_sys_init.o) (alt_dev_list)
../SemaforoNet_bsp/\libucosii_bsp.a(alt_dev_llist_insert.o)
                              ../SemaforoNet_bsp/\libucosii_bsp.a(alt_sys_init.o) (alt_dev_llist_insert)
../SemaforoNet_bsp/\libucosii_bsp.a(alt_do_ctors.o)
                              ../SemaforoNet_bsp/\libucosii_bsp.a(alt_main.o) (_do_ctors)
../SemaforoNet_bsp/\libucosii_bsp.a(alt_do_dtors.o)
                              ../SemaforoNet_bsp/\libucosii_bsp.a(alt_main.o) (_do_dtors)
../SemaforoNet_bsp/\libucosii_bsp.a(alt_errno.o)
                              ../SemaforoNet_bsp/\libucosii_bsp.a(alt_fstat.o) (alt_errno)
../SemaforoNet_bsp/\libucosii_bsp.a(alt_find_dev.o)
                              ../SemaforoNet_bsp/\libucosii_bsp.a(alt_flash_dev.o) (alt_find_dev)
../SemaforoNet_bsp/\libucosii_bsp.a(alt_iic.o)
                              ../SemaforoNet_bsp/\libucosii_bsp.a(altera_avalon_jtag_uart_init.o) (alt_ic_isr_register)
../SemaforoNet_bsp/\libucosii_bsp.a(alt_iic_isr_register.o)
                              ../SemaforoNet_bsp/\libucosii_bsp.a(alt_iic.o) (alt_iic_isr_register)
../SemaforoNet_bsp/\libucosii_bsp.a(alt_io_redirect.o)
                              ../SemaforoNet_bsp/\libucosii_bsp.a(alt_main.o) (alt_io_redirect)
../SemaforoNet_bsp/\libucosii_bsp.a(alt_irq_entry.o)
                              ../SemaforoNet_bsp/\libucosii_bsp.a(alt_irq_register.o) (alt_irq_entry)
../SemaforoNet_bsp/\libucosii_bsp.a(alt_irq_handler.o)
                              ../SemaforoNet_bsp/\libucosii_bsp.a(alt_irq_register.o) (alt_irq_handler)
../SemaforoNet_bsp/\libucosii_bsp.a(alt_open.o)
                              ../SemaforoNet_bsp/\libucosii_bsp.a(alt_io_redirect.o) (open)
../SemaforoNet_bsp/\libucosii_bsp.a(alt_read.o)
                              ../SemaforoNet_bsp/\libucosii_bsp.a(alt_iniche_read.o) (alt_read)
../SemaforoNet_bsp/\libucosii_bsp.a(alt_release_fd.o)
                              ../SemaforoNet_bsp/\libucosii_bsp.a(alt_close.o) (alt_release_fd)
../SemaforoNet_bsp/\libucosii_bsp.a(alt_remap_cached.o)
                              ../SemaforoNet_bsp/\libucosii_bsp.a(targnios.o) (alt_remap_cached)
../SemaforoNet_bsp/\libucosii_bsp.a(alt_remap_uncached.o)
                              ../SemaforoNet_bsp/\libucosii_bsp.a(targnios.o) (alt_remap_uncached)
../SemaforoNet_bsp/\libucosii_bsp.a(alt_tick.o)
                              ../SemaforoNet_bsp/\libucosii_bsp.a(alt_usleep.o) (_alt_tick_rate)
../SemaforoNet_bsp/\libucosii_bsp.a(alt_write.o)
                              ../SemaforoNet_bsp/\libucosii_bsp.a(alt_iniche_write.o) (alt_write)
../SemaforoNet_bsp/\libucosii_bsp.a(altera_nios2_qsys_irq.o)
                              ../SemaforoNet_bsp/\libucosii_bsp.a(alt_sys_init.o) (altera_nios2_qsys_irq_init)
../SemaforoNet_bsp/\libucosii_bsp.a(os_cpu_a.o)
                              ../SemaforoNet_bsp/\libucosii_bsp.a(os_core.o) (OSIntCtxSw)
../SemaforoNet_bsp/\libucosii_bsp.a(os_cpu_c.o)
                              ../SemaforoNet_bsp/\libucosii_bsp.a(os_task.o) (OSTaskStkInit)
../SemaforoNet_bsp/\libucosii_bsp.a(altera_avalon_cfi_flash_amd.o)
                              ../SemaforoNet_bsp/\libucosii_bsp.a(altera_avalon_cfi_flash_table.o) (alt_program_amd)
../SemaforoNet_bsp/\libucosii_bsp.a(altera_avalon_cfi_flash_intel.o)
                              ../SemaforoNet_bsp/\libucosii_bsp.a(altera_avalon_cfi_flash_table.o) (alt_program_intel)
../SemaforoNet_bsp/\libucosii_bsp.a(altera_avalon_spi.o)
                              ../SemaforoNet_bsp/\libucosii_bsp.a(epcs_commands.o) (alt_avalon_spi_command)
../SemaforoNet_bsp/\libucosii_bsp.a(allports.o)
                              ../SemaforoNet_bsp/\libucosii_bsp.a(dhcpclnt.o) (name)
../SemaforoNet_bsp/\libucosii_bsp.a(timeouts.o)
                              ../SemaforoNet_bsp/\libucosii_bsp.a(netmain.o) (inet_timer)
../SemaforoNet_bsp/\libucosii_bsp.a(tk_misc.o)
                              ../SemaforoNet_bsp/\libucosii_bsp.a(netmain.o) (create_apptasks)
../SemaforoNet_bsp/\libucosii_bsp.a(alt_iniche_fcntl.o)
                              ../SemaforoNet_bsp/\libucosii_bsp.a(brdutils.o) (fcntl)
../SemaforoNet_bsp/\libucosii_bsp.a(et_arp.o)
                              ../SemaforoNet_bsp/\libucosii_bsp.a(ipstart.o) (etainit)
../SemaforoNet_bsp/\libucosii_bsp.a(iface.o)
                              ../SemaforoNet_bsp/\libucosii_bsp.a(ipnet.o) (netlist)
../SemaforoNet_bsp/\libucosii_bsp.a(ip.o)
                              ../SemaforoNet_bsp/\libucosii_bsp.a(ipstart.o) (ip_init)
../SemaforoNet_bsp/\libucosii_bsp.a(ip_reasm.o)
                              ../SemaforoNet_bsp/\libucosii_bsp.a(timeouts.o) (ire_cticks)
../SemaforoNet_bsp/\libucosii_bsp.a(ipdemux.o)
                              ../SemaforoNet_bsp/\libucosii_bsp.a(ipnet.o) (ip_rcv)
../SemaforoNet_bsp/\libucosii_bsp.a(ipmc.o)
                              ../SemaforoNet_bsp/\libucosii_bsp.a(ipstart.o) (in_addmulti)
../SemaforoNet_bsp/\libucosii_bsp.a(ipport.o)
                              ../SemaforoNet_bsp/\libucosii_bsp.a(targnios.o) (port_prep)
../SemaforoNet_bsp/\libucosii_bsp.a(ipraw.o)
                              ../SemaforoNet_bsp/\libucosii_bsp.a(rawsock.o) (ipraw_eps)
../SemaforoNet_bsp/\libucosii_bsp.a(iproute.o)
                              ../SemaforoNet_bsp/\libucosii_bsp.a(ip.o) (cachedRoute)
../SemaforoNet_bsp/\libucosii_bsp.a(udp.o)
                              ../SemaforoNet_bsp/\libucosii_bsp.a(ipdemux.o) (udpdemux)
../SemaforoNet_bsp/\libucosii_bsp.a(igmp.o)
                              ../SemaforoNet_bsp/\libucosii_bsp.a(igmp_cmn.o) (igmpv1_input)
../SemaforoNet_bsp/\libucosii_bsp.a(igmp2.o)
                              ../SemaforoNet_bsp/\libucosii_bsp.a(igmp_cmn.o) (igmpv2_input)
../SemaforoNet_bsp/\libucosii_bsp.a(ipopt.o)
                              ../SemaforoNet_bsp/\libucosii_bsp.a(socket.o) (ip_setmoptions)
../SemaforoNet_bsp/\libucosii_bsp.a(u_mctest.o)
                              ../SemaforoNet_bsp/\libucosii_bsp.a(allports.o) (u_mctest_init)
../SemaforoNet_bsp/\libucosii_bsp.a(dhcsetup.o)
                              ../SemaforoNet_bsp/\libucosii_bsp.a(allports.o) (dhc_setup)
../SemaforoNet_bsp/\libucosii_bsp.a(memdev.o)
                              ../SemaforoNet_bsp/\libucosii_bsp.a(allports.o) (init_memdev)
../SemaforoNet_bsp/\libucosii_bsp.a(tcpcksum.o)
                              ../SemaforoNet_bsp/\libucosii_bsp.a(nptcp.o) (tcp_cksum)
../SemaforoNet_bsp/\libucosii_bsp.a(in_pcb.o)
                              ../SemaforoNet_bsp/\libucosii_bsp.a(tcp_usr.o) (in_pcballoc)
../SemaforoNet_bsp/\libucosii_bsp.a(vfsfiles.o)
                              ../SemaforoNet_bsp/\libucosii_bsp.a(memdev.o) (vfsystems)
../SemaforoNet_bsp/\libucosii_bsp.a(vfsport.o)
                              ../SemaforoNet_bsp/\libucosii_bsp.a(allports.o) (prep_vfs)
../SemaforoNet_bsp/\libucosii_bsp.a(alt_exception_entry.o)
                              ../SemaforoNet_bsp/\libucosii_bsp.a(alt_irq_entry.o) (alt_exception)
../SemaforoNet_bsp/\libucosii_bsp.a(alt_fcntl.o)
                              ../SemaforoNet_bsp/\libucosii_bsp.a(alt_iniche_fcntl.o) (alt_fcntl)
../SemaforoNet_bsp/\libucosii_bsp.a(alt_find_file.o)
                              ../SemaforoNet_bsp/\libucosii_bsp.a(alt_open.o) (alt_find_file)
../SemaforoNet_bsp/\libucosii_bsp.a(alt_get_fd.o)
                              ../SemaforoNet_bsp/\libucosii_bsp.a(alt_open.o) (alt_get_fd)
../SemaforoNet_bsp/\libucosii_bsp.a(icmp.o)
                              ../SemaforoNet_bsp/\libucosii_bsp.a(ipdemux.o) (icmprcv)
c:/altera/13.0sp1/nios2eds/bin/gnu/h-i686-mingw32/bin/../lib/gcc/nios2-elf/4.1.2/../../../../nios2-elf/lib\libc.a(lib_a-atexit.o)
                              ../SemaforoNet_bsp/\libucosii_bsp.a(alt_main.o) (atexit)
c:/altera/13.0sp1/nios2eds/bin/gnu/h-i686-mingw32/bin/../lib/gcc/nios2-elf/4.1.2/../../../../nios2-elf/lib\libc.a(lib_a-atoi.o)
                              ../SemaforoNet_bsp/\libucosii_bsp.a(parseip.o) (atoi)
c:/altera/13.0sp1/nios2eds/bin/gnu/h-i686-mingw32/bin/../lib/gcc/nios2-elf/4.1.2/../../../../nios2-elf/lib\libc.a(lib_a-calloc.o)
                              ../SemaforoNet_bsp/\libucosii_bsp.a(targnios.o) (calloc)
c:/altera/13.0sp1/nios2eds/bin/gnu/h-i686-mingw32/bin/../lib/gcc/nios2-elf/4.1.2/../../../../nios2-elf/lib\libc.a(lib_a-memcmp.o)
                              ../SemaforoNet_bsp/\libucosii_bsp.a(altera_avalon_cfi_flash.o) (memcmp)
c:/altera/13.0sp1/nios2eds/bin/gnu/h-i686-mingw32/bin/../lib/gcc/nios2-elf/4.1.2/../../../../nios2-elf/lib\libc.a(lib_a-strcpy.o)
                              ../SemaforoNet_bsp/\libucosii_bsp.a(parseip.o) (strcpy)
c:/altera/13.0sp1/nios2eds/bin/gnu/h-i686-mingw32/bin/../lib/gcc/nios2-elf/4.1.2/../../../../nios2-elf/lib\libc.a(lib_a-strncmp.o)
                              ../SemaforoNet_bsp/\libucosii_bsp.a(vfsfiles.o) (strncmp)
c:/altera/13.0sp1/nios2eds/bin/gnu/h-i686-mingw32/bin/../lib/gcc/nios2-elf/4.1.2/../../../../nios2-elf/lib\libc.a(lib_a-vprintf.o)
                              ../SemaforoNet_bsp/\libucosii_bsp.a(in_utils.o) (vprintf)
c:/altera/13.0sp1/nios2eds/bin/gnu/h-i686-mingw32/bin/../lib/gcc/nios2-elf/4.1.2/../../../../nios2-elf/lib\libc.a(lib_a-vsprintf.o)
                              ../SemaforoNet_bsp/\libucosii_bsp.a(in_utils.o) (vsprintf)
c:/altera/13.0sp1/nios2eds/bin/gnu/h-i686-mingw32/bin/../lib/gcc/nios2-elf/4.1.2/../../../../nios2-elf/lib\libc.a(lib_a-__atexit.o)
                              c:/altera/13.0sp1/nios2eds/bin/gnu/h-i686-mingw32/bin/../lib/gcc/nios2-elf/4.1.2/../../../../nios2-elf/lib\libc.a(lib_a-atexit.o) (__register_exitproc)

Allocating common symbols
Common symbol       size              file

soq                 0x14              ../SemaforoNet_bsp/\libucosii_bsp.a(nptcp.o)
alt_irq             0x100             ../SemaforoNet_bsp/\libucosii_bsp.a(alt_irq_handler.o)
tcp_optionbuf       0x4               ../SemaforoNet_bsp/\libucosii_bsp.a(tcp_out.o)
last_flash_sector_offset
                    0x4               obj/default/network_utilities.o
rt_mib              0x4               ../SemaforoNet_bsp/\libucosii_bsp.a(ip.o)
so_evtmap_create    0x4               ../SemaforoNet_bsp/\libucosii_bsp.a(ipport.o)
SSSLEDCommandQ      0x4               obj/default/simple_socket_server.o
OSLockNesting       0x1               ../SemaforoNet_bsp/\libucosii_bsp.a(os_core.o)
tcb                 0x2c              ../SemaforoNet_bsp/\libucosii_bsp.a(tcp_subr.o)
OSRunning           0x1               ../SemaforoNet_bsp/\libucosii_bsp.a(os_core.o)
dhc_states          0xf0              ../SemaforoNet_bsp/\libucosii_bsp.a(dhcpclnt.o)
tcpstat             0xe0              ../SemaforoNet_bsp/\libucosii_bsp.a(tcp_subr.o)
OSIdleCtr           0x4               ../SemaforoNet_bsp/\libucosii_bsp.a(os_core.o)
SSSLEDLightshowSem  0x4               obj/default/simple_socket_server.o
udp_mib             0x10              ../SemaforoNet_bsp/\libucosii_bsp.a(udp.o)
to_netmain          0x1               ../SemaforoNet_bsp/\libucosii_bsp.a(netmain.o)
OSPrioHighRdy       0x1               ../SemaforoNet_bsp/\libucosii_bsp.a(os_core.o)
errno               0x4               c:/altera/13.0sp1/nios2eds/bin/gnu/h-i686-mingw32/bin/../lib/gcc/nios2-elf/4.1.2/../../../../nios2-elf/lib\libc.a(lib_a-int_errno.o)
lilfreeq            0x14              ../SemaforoNet_bsp/\libucosii_bsp.a(pktalloc.o)
icmp_mib            0x68              ../SemaforoNet_bsp/\libucosii_bsp.a(icmp.o)
resid_semaphore     0x40              ../SemaforoNet_bsp/\libucosii_bsp.a(targnios.o)
alt_heapsem         0x4               ../SemaforoNet_bsp/\libucosii_bsp.a(alt_malloc_lock.o)
OSFlagTbl           0x370             ../SemaforoNet_bsp/\libucosii_bsp.a(os_core.o)
mbstat              0x8               ../SemaforoNet_bsp/\libucosii_bsp.a(nptcp.o)
netq_intmask        0x4               ../SemaforoNet_bsp/\libucosii_bsp.a(osportco.o)
select_wait         0x2               ../SemaforoNet_bsp/\libucosii_bsp.a(nptcp.o)
tcpmib              0x3c              ../SemaforoNet_bsp/\libucosii_bsp.a(nptcp.o)
OSPrioCur           0x1               ../SemaforoNet_bsp/\libucosii_bsp.a(os_core.o)
mheap_sem_ptr       0x4               ../SemaforoNet_bsp/\libucosii_bsp.a(targnios.o)
netlist             0x14              ../SemaforoNet_bsp/\libucosii_bsp.a(iface.o)
mbufq               0x14              ../SemaforoNet_bsp/\libucosii_bsp.a(nptcp.o)
OSTCBList           0x4               ../SemaforoNet_bsp/\libucosii_bsp.a(os_core.o)
alt_fd_list_lock    0x4               ../SemaforoNet_bsp/\libucosii_bsp.a(alt_dev.o)
OSMemTbl            0xc30             ../SemaforoNet_bsp/\libucosii_bsp.a(os_core.o)
OSTickStepState     0x1               ../SemaforoNet_bsp/\libucosii_bsp.a(os_core.o)
OSTaskStatStk       0x800             ../SemaforoNet_bsp/\libucosii_bsp.a(os_core.o)
OSCtxSwCtr          0x4               ../SemaforoNet_bsp/\libucosii_bsp.a(os_core.o)
igmpstats           0x64              ../SemaforoNet_bsp/\libucosii_bsp.a(igmp_cmn.o)
ire_stats           0x18              ../SemaforoNet_bsp/\libucosii_bsp.a(ip_reasm.o)
old_mode            0x4               ../SemaforoNet_bsp/\libucosii_bsp.a(osportco.o)
vfs_dir_stale       0x4               ../SemaforoNet_bsp/\libucosii_bsp.a(vfsfiles.o)
cticks_factor       0x4               ../SemaforoNet_bsp/\libucosii_bsp.a(brdutils.o)
g_dm9ka             0x44              obj/default/dm9000a.o
OSIdleCtrMax        0x4               ../SemaforoNet_bsp/\libucosii_bsp.a(os_core.o)
memestats           0x10              ../SemaforoNet_bsp/\libucosii_bsp.a(pktalloc.o)
intimers            0x64              ../SemaforoNet_bsp/\libucosii_bsp.a(timeouts.o)
OSTCBFreeList       0x4               ../SemaforoNet_bsp/\libucosii_bsp.a(os_core.o)
global_TCPwakeup_setIndx
                    0x4               ../SemaforoNet_bsp/\libucosii_bsp.a(osportco.o)
SSSInitialTaskStk   0x2000            obj/default/main.o
rcvdq               0x14              ../SemaforoNet_bsp/\libucosii_bsp.a(ipnet.o)
global_tcb_ext      0xfc              ../SemaforoNet_bsp/\libucosii_bsp.a(osportco.o)
netstatic           0x300             ../SemaforoNet_bsp/\libucosii_bsp.a(ipstart.o)
tcp_maxidle         0x4               ../SemaforoNet_bsp/\libucosii_bsp.a(tcp_timr.o)
LED7SegLightshowTaskStk
                    0x2000            obj/default/simple_socket_server.o
OSCPUUsage          0x1               ../SemaforoNet_bsp/\libucosii_bsp.a(os_core.o)
nets                0x10              ../SemaforoNet_bsp/\libucosii_bsp.a(ipstart.o)
pktlog              0xf0              ../SemaforoNet_bsp/\libucosii_bsp.a(pktalloc.o)
OSTaskCtr           0x1               ../SemaforoNet_bsp/\libucosii_bsp.a(os_core.o)
SSSLEDEventFlag     0x4               obj/default/simple_socket_server.o
OSMemFreeList       0x4               ../SemaforoNet_bsp/\libucosii_bsp.a(os_core.o)
vfs_open_files      0x4               ../SemaforoNet_bsp/\libucosii_bsp.a(vfsfiles.o)
cticks              0x4               ../SemaforoNet_bsp/\libucosii_bsp.a(osportco.o)
to_nettick          0x1               ../SemaforoNet_bsp/\libucosii_bsp.a(netmain.o)
last_flash_sector   0x4               obj/default/network_utilities.o
OSQTbl              0x1e0             ../SemaforoNet_bsp/\libucosii_bsp.a(os_core.o)
OSTCBHighRdy        0x4               ../SemaforoNet_bsp/\libucosii_bsp.a(os_core.o)
OSQFreeList         0x4               ../SemaforoNet_bsp/\libucosii_bsp.a(os_core.o)
OSRdyGrp            0x1               ../SemaforoNet_bsp/\libucosii_bsp.a(os_core.o)
ip_mib              0x50              ../SemaforoNet_bsp/\libucosii_bsp.a(ip.o)
SSSLEDCommandQTbl   0x78              obj/default/simple_socket_server.o
OS_TPS              0x4               ../SemaforoNet_bsp/\libucosii_bsp.a(brdutils.o)
_atexit0            0x190             c:/altera/13.0sp1/nios2eds/bin/gnu/h-i686-mingw32/bin/../lib/gcc/nios2-elf/4.1.2/../../../../nios2-elf/lib\libc.a(lib_a-atexit.o)
OSRdyTbl            0x3               ../SemaforoNet_bsp/\libucosii_bsp.a(os_core.o)
igmp_all_hosts_group
                    0x4               ../SemaforoNet_bsp/\libucosii_bsp.a(igmp_cmn.o)
eth_prt_buf         0x12              ../SemaforoNet_bsp/\libucosii_bsp.a(in_utils.o)
app_semaphore       0x18              ../SemaforoNet_bsp/\libucosii_bsp.a(targnios.o)
LEDManagementTaskStk
                    0x2000            obj/default/simple_socket_server.o
rcvdq_sem_ptr       0x4               ../SemaforoNet_bsp/\libucosii_bsp.a(targnios.o)
OSEventFreeList     0x4               ../SemaforoNet_bsp/\libucosii_bsp.a(os_core.o)
mfreeq              0x14              ../SemaforoNet_bsp/\libucosii_bsp.a(nptcp.o)
global_TCPwakeup_set
                    0xf0              ../SemaforoNet_bsp/\libucosii_bsp.a(osportco.o)
bigfreeq            0x14              ../SemaforoNet_bsp/\libucosii_bsp.a(pktalloc.o)
so_evtmap_delete    0x4               ../SemaforoNet_bsp/\libucosii_bsp.a(ipport.o)
tcp_saveti          0x28              ../SemaforoNet_bsp/\libucosii_bsp.a(tcp_in.o)
OSIntNesting        0x1               ../SemaforoNet_bsp/\libucosii_bsp.a(os_core.o)
so_evtmap           0x1               ../SemaforoNet_bsp/\libucosii_bsp.a(ipport.o)
OSTCBCur            0x4               ../SemaforoNet_bsp/\libucosii_bsp.a(os_core.o)
arp_table           0x100             ../SemaforoNet_bsp/\libucosii_bsp.a(et_arp.o)
tcp_iss             0x4               ../SemaforoNet_bsp/\libucosii_bsp.a(tcp_timr.o)
vfs_total_rw_space  0x4               ../SemaforoNet_bsp/\libucosii_bsp.a(vfsfiles.o)
OSTime              0x4               ../SemaforoNet_bsp/\libucosii_bsp.a(os_core.o)
OSTaskIdleStk       0x800             ../SemaforoNet_bsp/\libucosii_bsp.a(os_core.o)
OSEventTbl          0xb40             ../SemaforoNet_bsp/\libucosii_bsp.a(os_core.o)
vfs_total_dyna_files
                    0x4               ../SemaforoNet_bsp/\libucosii_bsp.a(vfsfiles.o)
OSTCBTbl            0x510             ../SemaforoNet_bsp/\libucosii_bsp.a(os_core.o)
ipreturn            0x12              ../SemaforoNet_bsp/\libucosii_bsp.a(in_utils.o)
OSFlagFreeList      0x4               ../SemaforoNet_bsp/\libucosii_bsp.a(os_core.o)
dropline            0x4               ../SemaforoNet_bsp/\libucosii_bsp.a(tcp_in.o)
OSStatRdy           0x1               ../SemaforoNet_bsp/\libucosii_bsp.a(os_core.o)
OSTCBPrioTbl        0x54              ../SemaforoNet_bsp/\libucosii_bsp.a(os_core.o)
igmp_all_rtrs_group
                    0x4               ../SemaforoNet_bsp/\libucosii_bsp.a(igmp_cmn.o)
alt_envsem          0x4               ../SemaforoNet_bsp/\libucosii_bsp.a(alt_env_lock.o)
OSIdleCtrRun        0x4               ../SemaforoNet_bsp/\libucosii_bsp.a(os_core.o)

Memory Configuration

Name             Origin             Length             Attributes
sdram_0_BEFORE_EXCEPTION 0x00800000         0x00000020
sdram_0          0x00800020         0x007fffe0
reset            0x01400000         0x00000020
cfi_flash_0      0x01400020         0x003fffe0
sram_0           0x01a00000         0x00080000
epcs_controller  0x01a81800         0x00000800
*default*        0x00000000         0xffffffff

Linker script and memory map

LOAD ../SemaforoNet_bsp//obj/HAL/src/crt0.o
LOAD obj/default/alt_error_handler.o
LOAD obj/default/dm9000a.o
LOAD obj/default/led.o
LOAD obj/default/main.o
LOAD obj/default/network_utilities.o
LOAD obj/default/simple_socket_server.o
LOAD obj/default/tse_my_system.o
LOAD c:/altera/13.0sp1/nios2eds/bin/gnu/h-i686-mingw32/bin/../lib/gcc/nios2-elf/4.1.2/../../../../nios2-elf/lib\libstdc++.a
LOAD c:/altera/13.0sp1/nios2eds/bin/gnu/h-i686-mingw32/bin/../lib/gcc/nios2-elf/4.1.2/../../../../nios2-elf/lib\libm.a
LOAD c:/altera/13.0sp1/nios2eds/bin/gnu/h-i686-mingw32/bin/../lib/gcc/nios2-elf/4.1.2\libgcc.a
START GROUP
LOAD c:/altera/13.0sp1/nios2eds/bin/gnu/h-i686-mingw32/bin/../lib/gcc/nios2-elf/4.1.2/../../../../nios2-elf/lib\libc.a
LOAD c:/altera/13.0sp1/nios2eds/bin/gnu/h-i686-mingw32/bin/../lib/gcc/nios2-elf/4.1.2\libgcc.a
LOAD ../SemaforoNet_bsp/\libucosii_bsp.a
END GROUP
LOAD c:/altera/13.0sp1/nios2eds/bin/gnu/h-i686-mingw32/bin/../lib/gcc/nios2-elf/4.1.2\libgcc.a
                0x00800000                __alt_mem_sdram_0 = 0x800000
                0x01400000                __alt_mem_cfi_flash_0 = 0x1400000
                0x01a00000                __alt_mem_sram_0 = 0x1a00000
                0x01a81800                __alt_mem_epcs_controller = 0x1a81800

.entry          0x01400000        0x0
 *(.entry)
 .entry         0x01400000        0x0 ../SemaforoNet_bsp//obj/HAL/src/crt0.o
                0x01400000                __reset

.exceptions     0x00800020      0x19c
                0x00800020                PROVIDE (__ram_exceptions_start, ABSOLUTE (.))
                0x00800020                . = ALIGN (0x20)
 *(.irq)
 *(.exceptions.entry.label)
 .exceptions.entry.label
                0x00800020        0x0 ../SemaforoNet_bsp/\libucosii_bsp.a(alt_irq_entry.o)
                0x00800020                alt_irq_entry
 .exceptions.entry.label
                0x00800020        0x0 ../SemaforoNet_bsp/\libucosii_bsp.a(alt_exception_entry.o)
                0x00800020                alt_exception
 *(.exceptions.entry.user)
 *(.exceptions.entry)
 .exceptions.entry
                0x00800020       0x54 ../SemaforoNet_bsp/\libucosii_bsp.a(alt_exception_entry.o)
 *(.exceptions.irqtest.user)
 *(.exceptions.irqtest)
 .exceptions.irqtest
                0x00800074       0x10 ../SemaforoNet_bsp/\libucosii_bsp.a(alt_irq_entry.o)
 *(.exceptions.irqhandler.user)
 *(.exceptions.irqhandler)
 .exceptions.irqhandler
                0x00800084        0x4 ../SemaforoNet_bsp/\libucosii_bsp.a(alt_irq_entry.o)
 *(.exceptions.irqreturn.user)
 *(.exceptions.irqreturn)
 .exceptions.irqreturn
                0x00800088        0x4 ../SemaforoNet_bsp/\libucosii_bsp.a(alt_irq_entry.o)
 *(.exceptions.notirq.label)
 .exceptions.notirq.label
                0x0080008c        0x0 ../SemaforoNet_bsp/\libucosii_bsp.a(alt_irq_entry.o)
 *(.exceptions.notirq.user)
 *(.exceptions.notirq)
 .exceptions.notirq
                0x0080008c        0x8 ../SemaforoNet_bsp/\libucosii_bsp.a(alt_exception_entry.o)
 *(.exceptions.soft.user)
 *(.exceptions.soft)
 *(.exceptions.unknown.user)
 *(.exceptions.unknown)
 .exceptions.unknown
                0x00800094        0x4 ../SemaforoNet_bsp/\libucosii_bsp.a(alt_exception_entry.o)
 *(.exceptions.exit.label)
 .exceptions.exit.label
                0x00800098        0x0 ../SemaforoNet_bsp/\libucosii_bsp.a(alt_irq_entry.o)
 .exceptions.exit.label
                0x00800098        0x0 ../SemaforoNet_bsp/\libucosii_bsp.a(alt_exception_entry.o)
 *(.exceptions.exit.user)
 *(.exceptions.exit)
 .exceptions.exit
                0x00800098       0x54 ../SemaforoNet_bsp/\libucosii_bsp.a(alt_exception_entry.o)
 *(.exceptions)
 .exceptions    0x008000ec       0xd0 ../SemaforoNet_bsp/\libucosii_bsp.a(alt_irq_handler.o)
                0x008000ec                alt_irq_handler
                0x008001bc                PROVIDE (__ram_exceptions_end, ABSOLUTE (.))
                0x00800020                PROVIDE (__flash_exceptions_start, LOADADDR (.exceptions))

.text           0x008001bc    0x467e4
                0x008001bc                PROVIDE (stext, ABSOLUTE (.))
 *(.interp)
 *(.hash)
 *(.dynsym)
 *(.dynstr)
 *(.gnu.version)
 *(.gnu.version_d)
 *(.gnu.version_r)
 *(.rel.init)
 *(.rela.init)
 *(.rel.text .rel.text.* .rel.gnu.linkonce.t.*)
 *(.rela.text .rela.text.* .rela.gnu.linkonce.t.*)
 *(.rel.fini)
 *(.rela.fini)
 *(.rel.rodata .rel.rodata.* .rel.gnu.linkonce.r.*)
 *(.rela.rodata .rela.rodata.* .rela.gnu.linkonce.r.*)
 *(.rel.data .rel.data.* .rel.gnu.linkonce.d.*)
 *(.rela.data .rela.data.* .rela.gnu.linkonce.d.*)
 *(.rel.tdata .rel.tdata.* .rel.gnu.linkonce.td.*)
 *(.rela.tdata .rela.tdata.* .rela.gnu.linkonce.td.*)
 *(.rel.tbss .rel.tbss.* .rel.gnu.linkonce.tb.*)
 *(.rela.tbss .rela.tbss.* .rela.gnu.linkonce.tb.*)
 *(.rel.ctors)
 *(.rela.ctors)
 *(.rel.dtors)
 *(.rela.dtors)
 *(.rel.got)
 *(.rela.got)
 *(.rel.sdata .rel.sdata.* .rel.gnu.linkonce.s.*)
 *(.rela.sdata .rela.sdata.* .rela.gnu.linkonce.s.*)
 *(.rel.sbss .rel.sbss.* .rel.gnu.linkonce.sb.*)
 *(.rela.sbss .rela.sbss.* .rela.gnu.linkonce.sb.*)
 *(.rel.sdata2 .rel.sdata2.* .rel.gnu.linkonce.s2.*)
 *(.rela.sdata2 .rela.sdata2.* .rela.gnu.linkonce.s2.*)
 *(.rel.sbss2 .rel.sbss2.* .rel.gnu.linkonce.sb2.*)
 *(.rela.sbss2 .rela.sbss2.* .rela.gnu.linkonce.sb2.*)
 *(.rel.bss .rel.bss.* .rel.gnu.linkonce.b.*)
 *(.rela.bss .rela.bss.* .rela.gnu.linkonce.b.*)
 *(.rel.plt)
 *(.rela.plt)
 *(.rel.dyn)
 *(.init)
 *(.plt)
 *(.text .stub .text.* .gnu.linkonce.t.*)
 .text          0x008001bc       0x48 ../SemaforoNet_bsp//obj/HAL/src/crt0.o
                0x008001bc                _start
 .text          0x00800204      0xba8 obj/default/alt_error_handler.o
                0x00800204                alt_uCOSIIErrorHandler
                0x00800828                alt_NetworkErrorHandler
                0x00800ac0                alt_SSSErrorHandler
 .text          0x00800dac      0xe48 obj/default/dm9000a.o
                0x00800dac                dm9000a_iow
                0x00800e00                dm9000a_ior
                0x00800e4c                phy_write
                0x00800ee8                dm9000a_reset
                0x008010ac                TransmitPacket
                0x008011c8                prep_dm9000a
                0x008013e4                dm9000a_init
                0x00801834                dm9Ka_isr_wrap
                0x00801874                dm9ka_init
                0x0080196c                dm9ka_close
                0x00801a7c                dm9ka_stats
                0x00801ad8                dm9ka_pkt_send
 .text          0x00801bf4      0x324 obj/default/led.o
                0x00801bf4                led_bit_toggle
                0x00801cc0                LED7SegLightshowTask
                0x00801d34                LEDManagementTask
 .text          0x00801f18      0x458 obj/default/main.o
                0x00801f18                GetRegisterId
                0x00801fa4                GetRegisterValue
                0x00802048                SSSInitialTask
                0x00802274                main
 .text          0x00802370      0x850 obj/default/network_utilities.o
                0x00802370                get_mac_addr
                0x008023c8                get_ip_addr
                0x00802424                get_serial_number
                0x00802600                generate_and_store_mac_addr
                0x008027ac                generate_mac_addr
                0x008028e8                get_board_mac_addr
                0x00802a7c                FindLastFlashSectorOffset
 .text          0x00802bc0      0x968 obj/default/simple_socket_server.o
                0x00802bc0                SSSCreateOSDataStructs
                0x00802c68                SSSCreateTasks
                0x00802d2c                sss_reset_connection
                0x00802d9c                sss_send_menu
                0x00802f2c                sss_handle_accept
                0x00802fec                sss_exec_command
                0x00803190                sss_handle_receive
                0x0080337c                SSSSimpleSocketServerTask
 .text          0x00803528        0x0 obj/default/tse_my_system.o
 .text          0x00803528       0xa4 c:/altera/13.0sp1/nios2eds/bin/gnu/h-i686-mingw32/bin/../lib/gcc/nios2-elf/4.1.2\libgcc.a(_fixunsdfsi.o)
                0x00803528                __fixunsdfsi
 .text          0x008035cc      0x504 c:/altera/13.0sp1/nios2eds/bin/gnu/h-i686-mingw32/bin/../lib/gcc/nios2-elf/4.1.2\libgcc.a(_addsub_df.o)
                0x008039dc                __subdf3
                0x00803a5c                __adddf3
 .text          0x00803ad0      0x3c4 c:/altera/13.0sp1/nios2eds/bin/gnu/h-i686-mingw32/bin/../lib/gcc/nios2-elf/4.1.2\libgcc.a(_mul_df.o)
                0x00803ad0                __muldf3
 .text          0x00803e94       0x88 c:/altera/13.0sp1/nios2eds/bin/gnu/h-i686-mingw32/bin/../lib/gcc/nios2-elf/4.1.2\libgcc.a(_ge_df.o)
                0x00803e94                __gedf2
 .text          0x00803f1c       0xd8 c:/altera/13.0sp1/nios2eds/bin/gnu/h-i686-mingw32/bin/../lib/gcc/nios2-elf/4.1.2\libgcc.a(_df_to_si.o)
                0x00803f1c                __fixdfsi
 .text          0x00803ff4        0x0 c:/altera/13.0sp1/nios2eds/bin/gnu/h-i686-mingw32/bin/../lib/gcc/nios2-elf/4.1.2\libgcc.a(_thenan_df.o)
 .text          0x00803ff4      0x194 c:/altera/13.0sp1/nios2eds/bin/gnu/h-i686-mingw32/bin/../lib/gcc/nios2-elf/4.1.2\libgcc.a(_usi_to_df.o)
                0x00803ff4                __floatunsidf
 .text          0x00804188       0x98 c:/altera/13.0sp1/nios2eds/bin/gnu/h-i686-mingw32/bin/../lib/gcc/nios2-elf/4.1.2\libgcc.a(_muldi3.o)
                0x00804188                __muldi3
 .text          0x00804220       0x80 c:/altera/13.0sp1/nios2eds/bin/gnu/h-i686-mingw32/bin/../lib/gcc/nios2-elf/4.1.2\libgcc.a(_clzsi2.o)
                0x00804220                __clzsi2
 .text          0x008042a0      0x314 c:/altera/13.0sp1/nios2eds/bin/gnu/h-i686-mingw32/bin/../lib/gcc/nios2-elf/4.1.2\libgcc.a(_pack_df.o)
                0x008042a0                __pack_d
 .text          0x008045b4      0x138 c:/altera/13.0sp1/nios2eds/bin/gnu/h-i686-mingw32/bin/../lib/gcc/nios2-elf/4.1.2\libgcc.a(_unpack_df.o)
                0x008045b4                __unpack_d
 .text          0x008046ec       0xc8 c:/altera/13.0sp1/nios2eds/bin/gnu/h-i686-mingw32/bin/../lib/gcc/nios2-elf/4.1.2\libgcc.a(_fpcmp_parts_df.o)
                0x008046ec                __fpcmp_parts_d
 .text          0x008047b4        0x0 c:/altera/13.0sp1/nios2eds/bin/gnu/h-i686-mingw32/bin/../lib/gcc/nios2-elf/4.1.2\libgcc.a(_clz.o)
 .text          0x008047b4        0x0 c:/altera/13.0sp1/nios2eds/bin/gnu/h-i686-mingw32/bin/../lib/gcc/nios2-elf/4.1.2/../../../../nios2-elf/lib\libc.a(lib_a-ctype_.o)
 .text          0x008047b4       0x38 c:/altera/13.0sp1/nios2eds/bin/gnu/h-i686-mingw32/bin/../lib/gcc/nios2-elf/4.1.2/../../../../nios2-elf/lib\libc.a(lib_a-exit.o)
                0x008047b4                exit
 .text          0x008047ec       0x60 c:/altera/13.0sp1/nios2eds/bin/gnu/h-i686-mingw32/bin/../lib/gcc/nios2-elf/4.1.2/../../../../nios2-elf/lib\libc.a(lib_a-fprintf.o)
                0x008047ec                fprintf
                0x00804818                _fprintf_r
 .text          0x0080484c       0xdc c:/altera/13.0sp1/nios2eds/bin/gnu/h-i686-mingw32/bin/../lib/gcc/nios2-elf/4.1.2/../../../../nios2-elf/lib\libc.a(lib_a-fwrite.o)
                0x0080484c                _fwrite_r
                0x008048e8                fwrite
 .text          0x00804928      0x128 c:/altera/13.0sp1/nios2eds/bin/gnu/h-i686-mingw32/bin/../lib/gcc/nios2-elf/4.1.2/../../../../nios2-elf/lib\libc.a(lib_a-getc.o)
                0x00804928                getc
                0x008049c0                _getc_r
 .text          0x00804a50        0x0 c:/altera/13.0sp1/nios2eds/bin/gnu/h-i686-mingw32/bin/../lib/gcc/nios2-elf/4.1.2/../../../../nios2-elf/lib\libc.a(lib_a-impure.o)
 .text          0x00804a50       0x28 c:/altera/13.0sp1/nios2eds/bin/gnu/h-i686-mingw32/bin/../lib/gcc/nios2-elf/4.1.2/../../../../nios2-elf/lib\libc.a(lib_a-malloc.o)
                0x00804a50                free
                0x00804a64                malloc
 .text          0x00804a78      0x740 c:/altera/13.0sp1/nios2eds/bin/gnu/h-i686-mingw32/bin/../lib/gcc/nios2-elf/4.1.2/../../../../nios2-elf/lib\libc.a(lib_a-mallocr.o)
                0x00804a78                _malloc_r
 .text          0x008051b8       0xa0 c:/altera/13.0sp1/nios2eds/bin/gnu/h-i686-mingw32/bin/../lib/gcc/nios2-elf/4.1.2/../../../../nios2-elf/lib\libc.a(lib_a-memcpy.o)
                0x008051b8                memcpy
 .text          0x00805258       0xe0 c:/altera/13.0sp1/nios2eds/bin/gnu/h-i686-mingw32/bin/../lib/gcc/nios2-elf/4.1.2/../../../../nios2-elf/lib\libc.a(lib_a-memmove.o)
                0x00805258                memmove
 .text          0x00805338       0x98 c:/altera/13.0sp1/nios2eds/bin/gnu/h-i686-mingw32/bin/../lib/gcc/nios2-elf/4.1.2/../../../../nios2-elf/lib\libc.a(lib_a-memset.o)
                0x00805338                memset
 .text          0x008053d0       0x80 c:/altera/13.0sp1/nios2eds/bin/gnu/h-i686-mingw32/bin/../lib/gcc/nios2-elf/4.1.2/../../../../nios2-elf/lib\libc.a(lib_a-perror.o)
                0x008053d0                _perror_r
                0x0080543c                perror
 .text          0x00805450       0x78 c:/altera/13.0sp1/nios2eds/bin/gnu/h-i686-mingw32/bin/../lib/gcc/nios2-elf/4.1.2/../../../../nios2-elf/lib\libc.a(lib_a-printf.o)
                0x00805450                printf
                0x00805494                _printf_r
 .text          0x008054c8      0x1ec c:/altera/13.0sp1/nios2eds/bin/gnu/h-i686-mingw32/bin/../lib/gcc/nios2-elf/4.1.2/../../../../nios2-elf/lib\libc.a(lib_a-putc.o)
                0x008054c8                putc
                0x008055cc                _putc_r
 .text          0x008056b4       0x24 c:/altera/13.0sp1/nios2eds/bin/gnu/h-i686-mingw32/bin/../lib/gcc/nios2-elf/4.1.2/../../../../nios2-elf/lib\libc.a(lib_a-putchar.o)
                0x008056b4                putchar
                0x008056d0                _putchar_r
 .text          0x008056d8       0xb4 c:/altera/13.0sp1/nios2eds/bin/gnu/h-i686-mingw32/bin/../lib/gcc/nios2-elf/4.1.2/../../../../nios2-elf/lib\libc.a(lib_a-puts.o)
                0x008056d8                _puts_r
                0x00805778                puts
 .text          0x0080578c       0x60 c:/altera/13.0sp1/nios2eds/bin/gnu/h-i686-mingw32/bin/../lib/gcc/nios2-elf/4.1.2/../../../../nios2-elf/lib\libc.a(lib_a-rget.o)
                0x0080578c                __srget_r
                0x008057d8                __srget
 .text          0x008057ec       0x70 c:/altera/13.0sp1/nios2eds/bin/gnu/h-i686-mingw32/bin/../lib/gcc/nios2-elf/4.1.2/../../../../nios2-elf/lib\libc.a(lib_a-sbrkr.o)
                0x008057ec                _sbrk_r
 .text          0x0080585c       0xd4 c:/altera/13.0sp1/nios2eds/bin/gnu/h-i686-mingw32/bin/../lib/gcc/nios2-elf/4.1.2/../../../../nios2-elf/lib\libc.a(lib_a-sprintf.o)
                0x0080585c                sprintf
                0x008058d0                _sprintf_r
 .text          0x00805930       0xe0 c:/altera/13.0sp1/nios2eds/bin/gnu/h-i686-mingw32/bin/../lib/gcc/nios2-elf/4.1.2/../../../../nios2-elf/lib\libc.a(lib_a-strchr.o)
                0x00805930                strchr
 .text          0x00805a10       0xbc c:/altera/13.0sp1/nios2eds/bin/gnu/h-i686-mingw32/bin/../lib/gcc/nios2-elf/4.1.2/../../../../nios2-elf/lib\libc.a(lib_a-strcmp.o)
                0x00805a10                strcmp
 .text          0x00805acc      0x674 c:/altera/13.0sp1/nios2eds/bin/gnu/h-i686-mingw32/bin/../lib/gcc/nios2-elf/4.1.2/../../../../nios2-elf/lib\libc.a(lib_a-strerror.o)
                0x00805acc                strerror
 .text          0x00806140       0x74 c:/altera/13.0sp1/nios2eds/bin/gnu/h-i686-mingw32/bin/../lib/gcc/nios2-elf/4.1.2/../../../../nios2-elf/lib\libc.a(lib_a-strlen.o)
                0x00806140                strlen
 .text          0x008061b4       0xbc c:/altera/13.0sp1/nios2eds/bin/gnu/h-i686-mingw32/bin/../lib/gcc/nios2-elf/4.1.2/../../../../nios2-elf/lib\libc.a(lib_a-strncpy.o)
                0x008061b4                strncpy
 .text          0x00806270      0x268 c:/altera/13.0sp1/nios2eds/bin/gnu/h-i686-mingw32/bin/../lib/gcc/nios2-elf/4.1.2/../../../../nios2-elf/lib\libc.a(lib_a-strtol.o)
                0x00806270                _strtol_r
                0x008064b4                strtol
 .text          0x008064d8        0x8 c:/altera/13.0sp1/nios2eds/bin/gnu/h-i686-mingw32/bin/../lib/gcc/nios2-elf/4.1.2/../../../../nios2-elf/lib\libc.a(lib_a-u_strerr.o)
                0x008064d8                _user_strerror
 .text          0x008064e0     0x1f28 c:/altera/13.0sp1/nios2eds/bin/gnu/h-i686-mingw32/bin/../lib/gcc/nios2-elf/4.1.2/../../../../nios2-elf/lib\libc.a(lib_a-vfprintf.o)
                0x00806538                ___vfprintf_internal_r
                0x008083e4                __vfprintf_internal
 .text          0x00808408      0x14c c:/altera/13.0sp1/nios2eds/bin/gnu/h-i686-mingw32/bin/../lib/gcc/nios2-elf/4.1.2/../../../../nios2-elf/lib\libc.a(lib_a-wbuf.o)
                0x00808408                __swbuf_r
                0x00808538                __swbuf
 .text          0x00808554      0x13c c:/altera/13.0sp1/nios2eds/bin/gnu/h-i686-mingw32/bin/../lib/gcc/nios2-elf/4.1.2/../../../../nios2-elf/lib\libc.a(lib_a-wsetup.o)
                0x00808554                __swsetup_r
 .text          0x00808690      0x1b4 c:/altera/13.0sp1/nios2eds/bin/gnu/h-i686-mingw32/bin/../lib/gcc/nios2-elf/4.1.2/../../../../nios2-elf/lib\libc.a(lib_a-__call_atexit.o)
                0x00808694                __call_exitprocs
 .text          0x00808844     0x17cc c:/altera/13.0sp1/nios2eds/bin/gnu/h-i686-mingw32/bin/../lib/gcc/nios2-elf/4.1.2/../../../../nios2-elf/lib\libc.a(lib_a-dtoa.o)
                0x00808a5c                _dtoa_r
 .text          0x0080a010      0x230 c:/altera/13.0sp1/nios2eds/bin/gnu/h-i686-mingw32/bin/../lib/gcc/nios2-elf/4.1.2/../../../../nios2-elf/lib\libc.a(lib_a-fflush.o)
                0x0080a010                _fflush_r
                0x0080a20c                fflush
 .text          0x0080a240      0x2c0 c:/altera/13.0sp1/nios2eds/bin/gnu/h-i686-mingw32/bin/../lib/gcc/nios2-elf/4.1.2/../../../../nios2-elf/lib\libc.a(lib_a-findfp.o)
                0x0080a298                __sfp_lock_acquire
                0x0080a29c                __sfp_lock_release
                0x0080a2a0                __sinit_lock_acquire
                0x0080a2a4                __sinit_lock_release
                0x0080a2a8                __sinit
                0x0080a35c                __fp_unlock_all
                0x0080a374                __fp_lock_all
                0x0080a38c                _cleanup_r
                0x0080a398                _cleanup
                0x0080a3a8                __sfmoreglue
                0x0080a410                __sfp
 .text          0x0080a500       0xbc c:/altera/13.0sp1/nios2eds/bin/gnu/h-i686-mingw32/bin/../lib/gcc/nios2-elf/4.1.2/../../../../nios2-elf/lib\libc.a(lib_a-fputc.o)
                0x0080a500                fputc
                0x0080a564                _fputc_r
 .text          0x0080a5bc       0x90 c:/altera/13.0sp1/nios2eds/bin/gnu/h-i686-mingw32/bin/../lib/gcc/nios2-elf/4.1.2/../../../../nios2-elf/lib\libc.a(lib_a-fputs.o)
                0x0080a5bc                _fputs_r
                0x0080a630                fputs
 .text          0x0080a64c      0x440 c:/altera/13.0sp1/nios2eds/bin/gnu/h-i686-mingw32/bin/../lib/gcc/nios2-elf/4.1.2/../../../../nios2-elf/lib\libc.a(lib_a-freer.o)
                0x0080a64c                _malloc_trim_r
                0x0080a778                _free_r
 .text          0x0080aa8c      0x49c c:/altera/13.0sp1/nios2eds/bin/gnu/h-i686-mingw32/bin/../lib/gcc/nios2-elf/4.1.2/../../../../nios2-elf/lib\libc.a(lib_a-fvwrite.o)
                0x0080aa8c                __sfvwrite_r
 .text          0x0080af28      0x180 c:/altera/13.0sp1/nios2eds/bin/gnu/h-i686-mingw32/bin/../lib/gcc/nios2-elf/4.1.2/../../../../nios2-elf/lib\libc.a(lib_a-fwalk.o)
                0x0080af28                _fwalk_reent
                0x0080aff0                _fwalk
 .text          0x0080b0a8        0x0 c:/altera/13.0sp1/nios2eds/bin/gnu/h-i686-mingw32/bin/../lib/gcc/nios2-elf/4.1.2/../../../../nios2-elf/lib\libc.a(lib_a-int_errno.o)
 .text          0x0080b0a8       0xc4 c:/altera/13.0sp1/nios2eds/bin/gnu/h-i686-mingw32/bin/../lib/gcc/nios2-elf/4.1.2/../../../../nios2-elf/lib\libc.a(lib_a-locale.o)
                0x0080b0a8                __locale_charset
                0x0080b0b0                _localeconv_r
                0x0080b0bc                localeconv
                0x0080b0cc                _setlocale_r
                0x0080b150                setlocale
 .text          0x0080b16c      0x194 c:/altera/13.0sp1/nios2eds/bin/gnu/h-i686-mingw32/bin/../lib/gcc/nios2-elf/4.1.2/../../../../nios2-elf/lib\libc.a(lib_a-makebuf.o)
                0x0080b16c                __smakebuf_r
 .text          0x0080b300       0xe4 c:/altera/13.0sp1/nios2eds/bin/gnu/h-i686-mingw32/bin/../lib/gcc/nios2-elf/4.1.2/../../../../nios2-elf/lib\libc.a(lib_a-memchr.o)
                0x0080b300                memchr
 .text          0x0080b3e4      0xff4 c:/altera/13.0sp1/nios2eds/bin/gnu/h-i686-mingw32/bin/../lib/gcc/nios2-elf/4.1.2/../../../../nios2-elf/lib\libc.a(lib_a-mprec.o)
                0x0080b3e4                _Bfree
                0x0080b40c                __hi0bits
                0x0080b47c                __lo0bits
                0x0080b540                __mcmp
                0x0080b5a0                __ulp
                0x0080b620                __b2d
                0x0080b740                __ratio
                0x0080b7f0                _mprec_log10
                0x0080b884                __copybits
                0x0080b8dc                __any_on
                0x0080b964                _Balloc
                0x0080ba20                __d2b
                0x0080bb9c                __mdiff
                0x0080bd28                __lshift
                0x0080be74                __multiply
                0x0080c05c                __i2b
                0x0080c098                __multadd
                0x0080c198                __pow5mult
                0x0080c2b8                __s2b
 .text          0x0080c3d8      0x5f4 c:/altera/13.0sp1/nios2eds/bin/gnu/h-i686-mingw32/bin/../lib/gcc/nios2-elf/4.1.2/../../../../nios2-elf/lib\libc.a(lib_a-reallocr.o)
                0x0080c3d8                _realloc_r
 .text          0x0080c9cc      0x1e0 c:/altera/13.0sp1/nios2eds/bin/gnu/h-i686-mingw32/bin/../lib/gcc/nios2-elf/4.1.2/../../../../nios2-elf/lib\libc.a(lib_a-refill.o)
                0x0080c9cc                __srefill_r
 .text          0x0080cbac       0x40 c:/altera/13.0sp1/nios2eds/bin/gnu/h-i686-mingw32/bin/../lib/gcc/nios2-elf/4.1.2/../../../../nios2-elf/lib\libc.a(lib_a-s_isinfd.o)
                0x0080cbac                __isinfd
 .text          0x0080cbec       0x30 c:/altera/13.0sp1/nios2eds/bin/gnu/h-i686-mingw32/bin/../lib/gcc/nios2-elf/4.1.2/../../../../nios2-elf/lib\libc.a(lib_a-s_isnand.o)
                0x0080cbec                __isnand
 .text          0x0080cc1c      0x14c c:/altera/13.0sp1/nios2eds/bin/gnu/h-i686-mingw32/bin/../lib/gcc/nios2-elf/4.1.2/../../../../nios2-elf/lib\libc.a(lib_a-stdio.o)
                0x0080cc1c                __sclose
                0x0080cc24                __sseek
                0x0080cc8c                __swrite
                0x0080cd08                __sread
 .text          0x0080cd68       0x78 c:/altera/13.0sp1/nios2eds/bin/gnu/h-i686-mingw32/bin/../lib/gcc/nios2-elf/4.1.2/../../../../nios2-elf/lib\libc.a(lib_a-writer.o)
                0x0080cd68                _write_r
 .text          0x0080cde0       0xb4 c:/altera/13.0sp1/nios2eds/bin/gnu/h-i686-mingw32/bin/../lib/gcc/nios2-elf/4.1.2/../../../../nios2-elf/lib\libc.a(lib_a-callocr.o)
                0x0080cde0                _calloc_r
 .text          0x0080ce94       0x70 c:/altera/13.0sp1/nios2eds/bin/gnu/h-i686-mingw32/bin/../lib/gcc/nios2-elf/4.1.2/../../../../nios2-elf/lib\libc.a(lib_a-closer.o)
                0x0080ce94                _close_r
 .text          0x0080cf04      0x124 c:/altera/13.0sp1/nios2eds/bin/gnu/h-i686-mingw32/bin/../lib/gcc/nios2-elf/4.1.2/../../../../nios2-elf/lib\libc.a(lib_a-fclose.o)
                0x0080cf04                _fclose_r
                0x0080d014                fclose
 .text          0x0080d028       0x74 c:/altera/13.0sp1/nios2eds/bin/gnu/h-i686-mingw32/bin/../lib/gcc/nios2-elf/4.1.2/../../../../nios2-elf/lib\libc.a(lib_a-fstatr.o)
                0x0080d028                _fstat_r
 .text          0x0080d09c       0x70 c:/altera/13.0sp1/nios2eds/bin/gnu/h-i686-mingw32/bin/../lib/gcc/nios2-elf/4.1.2/../../../../nios2-elf/lib\libc.a(lib_a-isattyr.o)
                0x0080d09c                _isatty_r
 .text          0x0080d10c       0x78 c:/altera/13.0sp1/nios2eds/bin/gnu/h-i686-mingw32/bin/../lib/gcc/nios2-elf/4.1.2/../../../../nios2-elf/lib\libc.a(lib_a-lseekr.o)
                0x0080d10c                _lseek_r
 .text          0x0080d184       0x78 c:/altera/13.0sp1/nios2eds/bin/gnu/h-i686-mingw32/bin/../lib/gcc/nios2-elf/4.1.2/../../../../nios2-elf/lib\libc.a(lib_a-readr.o)
                0x0080d184                _read_r
 .text          0x0080d1fc      0x5dc c:/altera/13.0sp1/nios2eds/bin/gnu/h-i686-mingw32/bin/../lib/gcc/nios2-elf/4.1.2\libgcc.a(_udivdi3.o)
                0x0080d1fc                __udivdi3
 .text          0x0080d7d8      0x5b0 c:/altera/13.0sp1/nios2eds/bin/gnu/h-i686-mingw32/bin/../lib/gcc/nios2-elf/4.1.2\libgcc.a(_umoddi3.o)
                0x0080d7d8                __umoddi3
 .text          0x0080dd88      0x258 c:/altera/13.0sp1/nios2eds/bin/gnu/h-i686-mingw32/bin/../lib/gcc/nios2-elf/4.1.2\libgcc.a(_div_df.o)
                0x0080dd88                __divdf3
 .text          0x0080dfe0       0x88 c:/altera/13.0sp1/nios2eds/bin/gnu/h-i686-mingw32/bin/../lib/gcc/nios2-elf/4.1.2\libgcc.a(_eq_df.o)
                0x0080dfe0                __eqdf2
 .text          0x0080e068       0x88 c:/altera/13.0sp1/nios2eds/bin/gnu/h-i686-mingw32/bin/../lib/gcc/nios2-elf/4.1.2\libgcc.a(_ne_df.o)
                0x0080e068                __nedf2
 .text          0x0080e0f0       0x88 c:/altera/13.0sp1/nios2eds/bin/gnu/h-i686-mingw32/bin/../lib/gcc/nios2-elf/4.1.2\libgcc.a(_gt_df.o)
                0x0080e0f0                __gtdf2
 .text          0x0080e178       0x88 c:/altera/13.0sp1/nios2eds/bin/gnu/h-i686-mingw32/bin/../lib/gcc/nios2-elf/4.1.2\libgcc.a(_lt_df.o)
                0x0080e178                __ltdf2
 .text          0x0080e200       0xf8 c:/altera/13.0sp1/nios2eds/bin/gnu/h-i686-mingw32/bin/../lib/gcc/nios2-elf/4.1.2\libgcc.a(_si_to_df.o)
                0x0080e200                __floatsidf
 .text          0x0080e2f8      0x14c c:/altera/13.0sp1/nios2eds/bin/gnu/h-i686-mingw32/bin/../lib/gcc/nios2-elf/4.1.2\libgcc.a(lib2-divmod.o)
                0x0080e374                __divsi3
                0x0080e3d4                __modsi3
                0x0080e434                __udivsi3
                0x0080e43c                __umodsi3
 .text          0x0080e444       0x6c ../SemaforoNet_bsp/\libucosii_bsp.a(alt_exit.o)
                0x0080e484                _exit
 .text          0x0080e4b0       0xd0 ../SemaforoNet_bsp/\libucosii_bsp.a(alt_flash_dev.o)
                0x0080e4b0                alt_flash_open_dev
                0x0080e52c                alt_flash_close_dev
 .text          0x0080e580      0x134 ../SemaforoNet_bsp/\libucosii_bsp.a(alt_fstat.o)
                0x0080e580                fstat
 .text          0x0080e6b4      0x1c0 ../SemaforoNet_bsp/\libucosii_bsp.a(alt_irq_register.o)
                0x0080e6b4                alt_irq_register
 .text          0x0080e874        0x0 ../SemaforoNet_bsp/\libucosii_bsp.a(alt_irq_vars.o)
 .text          0x0080e874      0x120 ../SemaforoNet_bsp/\libucosii_bsp.a(alt_isatty.o)
                0x0080e874                isatty
 .text          0x0080e994      0x150 ../SemaforoNet_bsp/\libucosii_bsp.a(alt_lseek.o)
                0x0080e994                lseek
 .text          0x0080eae4       0xc8 ../SemaforoNet_bsp/\libucosii_bsp.a(alt_main.o)
                0x0080eae4                alt_main
 .text          0x0080ebac       0xbc ../SemaforoNet_bsp/\libucosii_bsp.a(alt_sbrk.o)
                0x0080ebac                sbrk
 .text          0x0080ec68      0x118 ../SemaforoNet_bsp/\libucosii_bsp.a(alt_usleep.o)
                0x0080ec68                usleep
 .text          0x0080ed80      0x108 ../SemaforoNet_bsp/\libucosii_bsp.a(alt_env_lock.o)
                0x0080ed80                __env_lock
                0x0080ee2c                __env_unlock
 .text          0x0080ee88      0x1d8 ../SemaforoNet_bsp/\libucosii_bsp.a(alt_malloc_lock.o)
                0x0080ee88                __malloc_lock
                0x0080ef90                __malloc_unlock
 .text          0x0080f060     0x2128 ../SemaforoNet_bsp/\libucosii_bsp.a(os_core.o)
                0x0080f060                OSEventNameGet
                0x0080f190                OSEventNameSet
                0x0080f2d4                OSEventPendMulti
                0x0080f988                OSInit
                0x0080f9dc                OSIntEnter
                0x0080fa58                OSIntExit
                0x0080fb58                OSSchedLock
                0x0080fbe4                OSSchedUnlock
                0x0080fcc8                OSStart
                0x0080fd38                OSStatInit
                0x0080fde4                OSTimeTick
                0x00810024                OSVersion
                0x00810044                OS_Dummy
                0x00810060                OS_EventTaskRdy
                0x008101f4                OS_EventTaskWait
                0x00810304                OS_EventTaskWaitMulti
                0x00810458                OS_EventTaskRemove
                0x00810510                OS_EventTaskRemoveMulti
                0x00810614                OS_EventWaitListInit
                0x008109e0                OS_MemClr
                0x00810a34                OS_MemCopy
                0x00810aa0                OS_Sched
                0x00810be4                OS_StrCopy
                0x00810c64                OS_StrLen
                0x00810cbc                OS_TaskIdle
                0x00810d18                OS_TaskStat
                0x00810de0                OS_TaskStatStkChk
                0x00810ea8                OS_TCBInit
 .text          0x00811188      0x18c ../SemaforoNet_bsp/\libucosii_bsp.a(os_dbg.o)
                0x00811188                OSDebugInit
 .text          0x00811314     0x193c ../SemaforoNet_bsp/\libucosii_bsp.a(os_flag.o)
                0x00811314                OSFlagAccept
                0x00811648                OSFlagCreate
                0x00811784                OSFlagDel
                0x00811a2c                OSFlagNameGet
                0x00811b70                OSFlagNameSet
                0x00811cc4                OSFlagPend
                0x00812308                OSFlagPendGetFlagsRdy
                0x00812370                OSFlagPost
                0x00812718                OSFlagQuery
                0x008129b0                OS_FlagInit
                0x00812ba4                OS_FlagUnlink
 .text          0x00812c50      0x808 ../SemaforoNet_bsp/\libucosii_bsp.a(os_mem.o)
                0x00812c50                OSMemCreate
                0x00812e6c                OSMemGet
                0x00812f70                OSMemNameGet
                0x0081307c                OSMemNameSet
                0x0081319c                OSMemPut
                0x0081328c                OSMemQuery
                0x00813388                OS_MemInit
 .text          0x00813458     0x1334 ../SemaforoNet_bsp/\libucosii_bsp.a(os_q.o)
                0x00813458                OSQAccept
                0x008135ac                OSQCreate
                0x008137c0                OSQDel
                0x00813ac0                OSQFlush
                0x00813b88                OSQPend
                0x00813ea8                OSQPendAbort
                0x00814024                OSQPost
                0x008141a4                OSQPostFront
                0x0081432c                OSQPostOpt
                0x00814560                OSQQuery
                0x008146e0                OS_QInit
 .text          0x0081478c      0xbc8 ../SemaforoNet_bsp/\libucosii_bsp.a(os_sem.o)
                0x0081478c                OSSemAccept
                0x0081484c                OSSemCreate
                0x00814960                OSSemDel
                0x00814c00                OSSemPend
                0x00814e7c                OSSemPendAbort
                0x00814ff8                OSSemPost
                0x00815120                OSSemQuery
                0x00815250                OSSemSet
 .text          0x00815354     0x1a40 ../SemaforoNet_bsp/\libucosii_bsp.a(os_task.o)
                0x00815354                OSTaskChangePrio
                0x008158c8                OSTaskCreate
                0x00815a9c                OSTaskCreateExt
                0x00815c9c                OSTaskDel
                0x008160a8                OSTaskDelReq
                0x00816218                OSTaskNameGet
                0x008163d0                OSTaskNameSet
                0x00816594                OSTaskResume
                0x008167ac                OSTaskStkChk
                0x008169a8                OSTaskSuspend
                0x00816bd4                OSTaskQuery
                0x00816d18                OS_TaskStkClr
 .text          0x00816d94      0x670 ../SemaforoNet_bsp/\libucosii_bsp.a(os_time.o)
                0x00816d94                OSTimeDly
                0x00816ee0                OSTimeDlyHMSM
                0x0081712c                OSTimeDlyResume
                0x0081733c                OSTimeGet
                0x008173a0                OSTimeSet
 .text          0x00817404      0x118 ../SemaforoNet_bsp/\libucosii_bsp.a(alt_sys_init.o)
                0x00817404                alt_irq_init
                0x00817438                alt_sys_init
 .text          0x0081751c      0x8c8 ../SemaforoNet_bsp/\libucosii_bsp.a(altera_avalon_cfi_flash.o)
                0x0081751c                alt_flash_cfi_init
                0x008175f0                alt_flash_cfi_write
                0x008178b0                alt_flash_cfi_get_info
                0x00817940                alt_flash_cfi_read
                0x008179a8                alt_write_value_to_flash
                0x00817b0c                alt_flash_program_block
 .text          0x00817de4     0x14a8 ../SemaforoNet_bsp/\libucosii_bsp.a(altera_avalon_cfi_flash_table.o)
                0x00817de4                alt_read_query_entry_8bit
                0x00817e24                alt_read_query_entry_16bit
                0x00817e68                alt_read_query_entry_32bit
                0x00817eb0                alt_write_flash_command_8bit_device_8bit_mode
                0x00817eec                alt_write_flash_command_16bit_device_8bit_mode
                0x00817f68                alt_write_flash_command_32bit_device_8bit_mode
                0x00817fb0                alt_write_flash_command_16bit_device_16bit_mode
                0x00817ff4                alt_write_flash_command_32bit_device_16bit_mode
                0x0081803c                alt_write_flash_command_32bit_device_32bit_mode
                0x00818084                alt_write_native_8bit
                0x008180b8                alt_write_native_16bit
                0x008180ec                alt_write_native_32bit
                0x0081811c                alt_set_flash_width_func
                0x008182fc                alt_set_flash_algorithm_func
                0x00818424                alt_read_cfi_table
                0x00818a04                alt_read_cfi_width
                0x008191b0                alt_check_primary_table
 .text          0x0081928c      0x9e4 ../SemaforoNet_bsp/\libucosii_bsp.a(altera_avalon_epcs_flash_controller.o)
                0x0081928c                alt_epcs_flash_init
                0x008196a8                alt_epcs_flash_write
                0x00819928                alt_epcs_flash_get_info
                0x008199b8                alt_epcs_flash_erase_block
                0x00819abc                alt_epcs_flash_write_block
                0x00819bd8                alt_epcs_flash_read
 .text          0x00819c70      0x148 ../SemaforoNet_bsp/\libucosii_bsp.a(altera_avalon_jtag_uart_fd.o)
                0x00819c70                altera_avalon_jtag_uart_read_fd
                0x00819cc8                altera_avalon_jtag_uart_write_fd
                0x00819d20                altera_avalon_jtag_uart_close_fd
                0x00819d68                altera_avalon_jtag_uart_ioctl_fd
 .text          0x00819db8      0x584 ../SemaforoNet_bsp/\libucosii_bsp.a(altera_avalon_jtag_uart_init.o)
                0x00819db8                altera_avalon_jtag_uart_init
                0x0081a2c8                altera_avalon_jtag_uart_close
 .text          0x0081a33c       0xf4 ../SemaforoNet_bsp/\libucosii_bsp.a(altera_avalon_jtag_uart_ioctl.o)
                0x0081a33c                altera_avalon_jtag_uart_ioctl
 .text          0x0081a430      0x2c0 ../SemaforoNet_bsp/\libucosii_bsp.a(altera_avalon_jtag_uart_read.o)
                0x0081a430                altera_avalon_jtag_uart_read
 .text          0x0081a6f0      0x2dc ../SemaforoNet_bsp/\libucosii_bsp.a(altera_avalon_jtag_uart_write.o)
                0x0081a6f0                altera_avalon_jtag_uart_write
 .text          0x0081a9cc      0xf3c ../SemaforoNet_bsp/\libucosii_bsp.a(altera_avalon_lcd_16207.o)
                0x0081b1a0                altera_avalon_lcd_16207_write
                0x0081b7a4                altera_avalon_lcd_16207_init
 .text          0x0081b908       0x58 ../SemaforoNet_bsp/\libucosii_bsp.a(altera_avalon_lcd_16207_fd.o)
                0x0081b908                altera_avalon_lcd_16207_write_fd
 .text          0x0081b960      0x100 ../SemaforoNet_bsp/\libucosii_bsp.a(altera_avalon_timer_sc.o)
                0x0081b9d0                alt_avalon_timer_sc_init
 .text          0x0081ba60       0xf8 ../SemaforoNet_bsp/\libucosii_bsp.a(altera_avalon_uart_fd.o)
                0x0081ba60                altera_avalon_uart_read_fd
                0x0081bab8                altera_avalon_uart_write_fd
                0x0081bb10                altera_avalon_uart_close_fd
 .text          0x0081bb58      0x57c ../SemaforoNet_bsp/\libucosii_bsp.a(altera_avalon_uart_init.o)
                0x0081bb58                altera_avalon_uart_init
                0x0081c074                altera_avalon_uart_close
 .text          0x0081c0d4      0x310 ../SemaforoNet_bsp/\libucosii_bsp.a(altera_avalon_uart_read.o)
                0x0081c0d4                altera_avalon_uart_read
 .text          0x0081c3e4      0x2a8 ../SemaforoNet_bsp/\libucosii_bsp.a(altera_avalon_uart_write.o)
                0x0081c3e4                altera_avalon_uart_write
 .text          0x0081c68c      0x6d4 ../SemaforoNet_bsp/\libucosii_bsp.a(epcs_commands.o)
                0x0081c68c                epcs_read_status_register
                0x0081c6ec                epcs_sector_erase
                0x0081c854                epcs_read_buffer
                0x0081c9a0                epcs_write_enable
                0x0081c9f0                epcs_write_status_register
                0x0081ca54                epcs_write_buffer
                0x0081cbc4                epcs_read_electronic_signature
                0x0081cc30                epcs_read_device_id
                0x0081ccb0                epcs_enter_4_bytes_mode
                0x0081cd08                epcs_exit_4_bytes_mode
 .text          0x0081cd60       0x54 ../SemaforoNet_bsp/\libucosii_bsp.a(alt_iniche_close.o)
                0x0081cd60                close
 .text          0x0081cdb4      0x144 ../SemaforoNet_bsp/\libucosii_bsp.a(alt_iniche_dev.o)
                0x0081cdb4                iniche_devices_init
 .text          0x0081cef8       0x78 ../SemaforoNet_bsp/\libucosii_bsp.a(alt_iniche_read.o)
                0x0081cef8                read
 .text          0x0081cf70       0x70 ../SemaforoNet_bsp/\libucosii_bsp.a(alt_iniche_write.o)
                0x0081cf70                write
 .text          0x0081cfe0      0xedc ../SemaforoNet_bsp/\libucosii_bsp.a(ipnet.o)
                0x0081cfe0                Netinit
                0x0081d62c                fixup_subnet_mask
                0x0081d78c                netclose
                0x0081d874                pktdemux
                0x0081dc48                c_older
                0x0081dd18                ip2mac
 .text          0x0081debc      0x4b0 ../SemaforoNet_bsp/\libucosii_bsp.a(ipstart.o)
                0x0081debc                ip_startup
                0x0081e1a0                exit_hook
                0x0081e20c                ip_exit
                0x0081e2dc                if_netnumber
 .text          0x0081e36c     0x10e8 ../SemaforoNet_bsp/\libucosii_bsp.a(igmp_cmn.o)
                0x0081e36c                igmp_init
                0x0081e45c                igmp_input
                0x0081e554                igmp_fasttimo
                0x0081e788                igmp_send
                0x0081ea30                igmp_joingroup
                0x0081ec9c                igmp_leavegroup
                0x0081ed18                igmp_validate
                0x0081f074                igmp_print_stats
 .text          0x0081f454      0xbc8 ../SemaforoNet_bsp/\libucosii_bsp.a(bsdsock.o)
                0x0081f454                bsd_accept
                0x0081f58c                bsd_getpeername
                0x0081f6b8                bsd_getsockname
                0x0081f7e4                bsd_i_sockoptlen
                0x0081f99c                bsd_getsockopt
                0x0081fabc                bsd_ioctl
                0x0081fbc0                bsd_inet_ntoa
                0x0081fbf0                bsd_recvfrom
                0x0081fd50                bsd_select
                0x0081ff30                bsd_setsockopt
 .text          0x0082001c      0x118 ../SemaforoNet_bsp/\libucosii_bsp.a(cksum.o)
                0x0082001c                ccksum
                0x008200cc                cksum
 .text          0x00820134      0xa9c ../SemaforoNet_bsp/\libucosii_bsp.a(in_utils.o)
                0x00820134                do_trap
                0x00820160                nextarg
                0x008201dc                hexdump
                0x00820324                print_ipad
                0x00820398                print_uptime
                0x008204c4                panic
                0x00820508                print_eth
                0x0082066c                uslash
                0x008206ec                ns_printf
                0x00820870                std_out
                0x008208b4                con_page
                0x008209a4                parse_args
 .text          0x00820bd0      0x1c8 ../SemaforoNet_bsp/\libucosii_bsp.a(netmain.o)
                0x00820bd0                netmain
                0x00820cc4                tk_netmain
                0x00820d4c                tk_nettick
 .text          0x00820d98      0x810 ../SemaforoNet_bsp/\libucosii_bsp.a(parseip.o)
                0x00820d98                parse_ipad
                0x008210b4                inet_addr
                0x0082111c                hextoa
                0x0082118c                inet_pton
                0x00821238                inet_ntop
                0x008212c4                print46_addr
                0x00821324                inet46_addr
                0x008213e8                inet_setport
                0x0082145c                convert_ip
 .text          0x008215a8      0x5e8 ../SemaforoNet_bsp/\libucosii_bsp.a(tk_crnos.o)
                0x008215a8                TK_OSTimeDly
                0x008215d4                TK_OSTaskResume
                0x00821644                tcp_sleep
                0x008217e4                tcp_wakeup
                0x008218e8                TK_OSTaskQuery
                0x0082195c                tk_yield
                0x00821988                tk_stats
 .text          0x00821b90     0x3294 ../SemaforoNet_bsp/\libucosii_bsp.a(dhcpclnt.o)
                0x00821b90                dhc_get_srv_ipaddr
                0x00821c20                dhc_init
                0x00821cdc                dhc_set_callback
                0x00821d20                dhc_upcall
                0x00822550                dhc_buildheader
                0x0082276c                dhc_discover
                0x00822c84                dhc_rx_offer
                0x00822d88                dhc_request
                0x008238c4                dhc_setip
                0x00823b44                dhc_resetip
                0x00823c28                dhc_decline
                0x00823e0c                dhc_extract_opts
                0x008240c8                dhc_second
                0x008249b8                dhc_halt
                0x00824a40                dhc_reclaim
                0x00824c10                dhc_state_init
                0x00824c70                dhc_alldone
                0x00824d00                dhc_ifacedone
                0x00824d74                dhc_set_state
 .text          0x00824e24       0xcc ../SemaforoNet_bsp/\libucosii_bsp.a(dhcputil.o)
                0x00824e24                find_opt
 .text          0x00824ef0      0x79c ../SemaforoNet_bsp/\libucosii_bsp.a(pktalloc.o)
                0x00824ef0                pk_init
                0x00825180                pk_alloc
                0x0082525c                pk_validate
                0x00825514                pk_free
                0x008255c0                pk_get_max_intrsafe_buf_len
                0x008255e0                dump_buf_estats
 .text          0x0082568c      0x288 ../SemaforoNet_bsp/\libucosii_bsp.a(q.o)
                0x0082568c                getq
                0x00825754                putq
                0x00825804                qdel
 .text          0x00825914      0x31c ../SemaforoNet_bsp/\libucosii_bsp.a(udp_open.o)
                0x00825914                udp_open
                0x00825b4c                udp_close
 .text          0x00825c30      0x194 ../SemaforoNet_bsp/\libucosii_bsp.a(asm_cksum.o)
                0x00825c30                asm_cksum
 .text          0x00825dc4      0x2e4 ../SemaforoNet_bsp/\libucosii_bsp.a(brdutils.o)
                0x00825dc4                dtrap
                0x00825df4                kbhit
                0x00825ea0                getch
                0x00825f00                clock_init
                0x00825f3c                clock_c
                0x00825f58                cticks_hook
                0x00826008                irq_Mask
                0x00826064                irq_Unmask
 .text          0x008260a8      0x488 ../SemaforoNet_bsp/\libucosii_bsp.a(osportco.o)
                0x008260a8                LOCK_NET_RESOURCE
                0x00826168                UNLOCK_NET_RESOURCE
                0x008261f0                TK_NEWTASK
                0x00826404                wait_app_sem
                0x008264b8                post_app_sem
 .text          0x00826530      0x568 ../SemaforoNet_bsp/\libucosii_bsp.a(targnios.o)
                0x00826530                alt_iniche_init
                0x0082674c                pre_task_setup
                0x008267c0                post_task_setup
                0x008267e0                prep_armintcp
                0x00826818                calloc2
                0x0082684c                npalloc
                0x00826940                npfree
                0x008269f8                ncpalloc
                0x00826a4c                ncpfree
 .text          0x00826a98     0x19b8 ../SemaforoNet_bsp/\libucosii_bsp.a(nptcp.o)
                0x00826a98                pffindtype
                0x00826b38                pffindproto
                0x00826c08                m_getnbuf
                0x00826db0                m_free
                0x00826ee4                m_freem
                0x00826f28                m_copy
                0x0082724c                m_adj
                0x0082741c                mbuf_len
                0x00827474                dtom
                0x0082751c                remque
                0x0082758c                insque
                0x00827608                nptcp_init
                0x0082772c                tcp_rcv
                0x00827918                ip_output
                0x00827f10                in_broadcast
                0x00827f50                np_stripoptions
                0x00828038                so_icmpdu
                0x00828390                tcp_tick
 .text          0x00828450      0xa2c ../SemaforoNet_bsp/\libucosii_bsp.a(rawsock.o)
                0x00828450                rawip_lookup
                0x008284c0                rawip_soinput
                0x00828694                rawip_usrreq
 .text          0x00828e7c     0x17fc ../SemaforoNet_bsp/\libucosii_bsp.a(sockcall.o)
                0x00828e7c                DOMAIN_CHECK
                0x00828ec8                t_socket
                0x00828f58                t_bind
                0x008290d4                t_listen
                0x008291b8                t_accept
                0x00829450                t_connect
                0x008296f8                t_getpeername
                0x0082973c                t_getsockname
                0x0082997c                t_setsockopt
                0x00829b58                t_getsockopt
                0x00829cfc                t_recv
                0x00829dec                t_recvfrom
                0x00829f3c                t_sendto
                0x0082a168                t_send
                0x0082a390                t_shutdown
                0x0082a474                t_socketclose
                0x0082a5dc                t_errno
 .text          0x0082a678     0x23ec ../SemaforoNet_bsp/\libucosii_bsp.a(socket.o)
                0x0082a678                socreate
                0x0082a844                sobind
                0x0082a8a0                solisten
                0x0082a990                sofree
                0x0082aac0                soclose
                0x0082ae2c                soabort
                0x0082ae7c                soaccept
                0x0082af18                soconnect
                0x0082afec                sodisconnect
                0x0082b08c                sosend
                0x0082b694                soreceive
                0x0082be78                soshutdown
                0x0082bf20                sorflush
                0x0082c020                sosetopt
                0x0082c4e0                sogetopt
                0x0082ca20                sohasoutofband
 .text          0x0082ca64     0x1318 ../SemaforoNet_bsp/\libucosii_bsp.a(socket2.o)
                0x0082ca64                soisconnecting
                0x0082cad0                soisconnected
                0x0082cbcc                soisdisconnecting
                0x0082cc58                soisdisconnected
                0x0082cd14                sonewconn
                0x0082cf30                soqinsque
                0x0082cfdc                soqremque
                0x0082d0fc                socantsendmore
                0x0082d14c                socantrcvmore
                0x0082d19c                sbselqueue
                0x0082d1d4                sbwait
                0x0082d23c                sbwakeup
                0x0082d2d8                soreserve
                0x0082d358                sbreserve
                0x0082d3b8                sbrelease
                0x0082d400                sbappend
                0x0082d4a8                sbappendrecord
                0x0082d588                sbappendaddr
                0x0082d790                sbcompress
                0x0082d978                sbflush
                0x0082da08                sbdrop
                0x0082dbd8                sbdropend
                0x0082dce8                sbdroprecord
 .text          0x0082dd7c      0x914 ../SemaforoNet_bsp/\libucosii_bsp.a(soselect.o)
                0x0082dd7c                t_select
                0x0082df9c                sock_selscan
                0x0082e0f4                sock_select
                0x0082e308                in_pcbnotify
                0x0082e3d4                tcp_notify
                0x0082e43c                ifd_clr
                0x0082e52c                ifd_set
                0x0082e5a0                ifd_isset
                0x0082e620                ifd_get
 .text          0x0082e690     0x3020 ../SemaforoNet_bsp/\libucosii_bsp.a(tcp_in.o)
                0x0082e690                tcp_reass
                0x0082ea98                tcp_input
                0x00830fec                tcp_dooptions
                0x0083117c                tcp_pulloutofband
                0x008312a8                tcp_xmit_timer
                0x0083154c                ip4_tcpmss
                0x00831594                tcp_mss
 .text          0x008316b0     0x1360 ../SemaforoNet_bsp/\libucosii_bsp.a(tcp_out.o)
                0x008316b0                tcp_output
                0x0083282c                tcp_setpersist
 .text          0x00832a10      0x9e8 ../SemaforoNet_bsp/\libucosii_bsp.a(tcp_subr.o)
                0x00832a10                tcp_init
                0x00832a68                tcp_template
                0x00832b80                tcp_respond
                0x00833008                tcp_newtcpcb
                0x00833120                tcp_drop
                0x008331cc                tcp_close
                0x008332b4                tcp_quench
                0x00833300                tcp_putseq
                0x00833380                tcp_getseq
 .text          0x008333f8      0x798 ../SemaforoNet_bsp/\libucosii_bsp.a(tcp_timr.o)
                0x008333f8                tcp_slowtimo
                0x00833698                tcp_canceltimers
                0x008336f4                tcp_timers
 .text          0x00833b90      0x9ec ../SemaforoNet_bsp/\libucosii_bsp.a(tcp_usr.o)
                0x00833b90                tcp_usrreq
                0x00834294                tcp_attach
                0x008343c8                tcp_disconnect
                0x0083449c                tcp_usrclosed
 .text          0x0083457c       0x4c ../SemaforoNet_bsp/\libucosii_bsp.a(tcpport.o)
                0x0083457c                tcpinit
 .text          0x008345c8      0xd20 ../SemaforoNet_bsp/\libucosii_bsp.a(udpsock.o)
                0x008345c8                udp_lookup
                0x00834638                udp_soinput
                0x008347f0                udp_usrreq
                0x00834a74                udp4_sockbind
                0x00834db0                udp4_socksend
                0x0083518c                udp4_sockaddr
 .text          0x008352e8      0x154 ../SemaforoNet_bsp/\libucosii_bsp.a(alt_alarm_start.o)
                0x008352e8                alt_alarm_start
 .text          0x0083543c      0x14c ../SemaforoNet_bsp/\libucosii_bsp.a(alt_busy_sleep.o)
                0x0083543c                alt_busy_sleep
 .text          0x00835588      0x15c ../SemaforoNet_bsp/\libucosii_bsp.a(alt_close.o)
                0x00835588                alt_close
 .text          0x008356e4       0x78 ../SemaforoNet_bsp/\libucosii_bsp.a(alt_dcache_flush.o)
                0x008356e4                alt_dcache_flush
 .text          0x0083575c       0x2c ../SemaforoNet_bsp/\libucosii_bsp.a(alt_dev.o)
 .text          0x00835788      0x114 ../SemaforoNet_bsp/\libucosii_bsp.a(alt_dev_llist_insert.o)
                0x00835788                alt_dev_llist_insert
 .text          0x0083589c       0x64 ../SemaforoNet_bsp/\libucosii_bsp.a(alt_do_ctors.o)
                0x0083589c                _do_ctors
 .text          0x00835900       0x64 ../SemaforoNet_bsp/\libucosii_bsp.a(alt_do_dtors.o)
                0x00835900                _do_dtors
 .text          0x00835964        0x0 ../SemaforoNet_bsp/\libucosii_bsp.a(alt_errno.o)
 .text          0x00835964       0x94 ../SemaforoNet_bsp/\libucosii_bsp.a(alt_find_dev.o)
                0x00835964                alt_find_dev
 .text          0x008359f8      0x1d4 ../SemaforoNet_bsp/\libucosii_bsp.a(alt_iic.o)
                0x008359f8                alt_ic_isr_register
                0x00835a48                alt_ic_irq_enable
                0x00835ae4                alt_ic_irq_disable
                0x00835b84                alt_ic_irq_enabled
 .text          0x00835bcc       0xf8 ../SemaforoNet_bsp/\libucosii_bsp.a(alt_iic_isr_register.o)
                0x00835bcc                alt_iic_isr_register
 .text          0x00835cc4      0x13c ../SemaforoNet_bsp/\libucosii_bsp.a(alt_io_redirect.o)
                0x00835d88                alt_io_redirect
 .text          0x00835e00        0x0 ../SemaforoNet_bsp/\libucosii_bsp.a(alt_irq_entry.o)
 .text          0x00835e00        0x0 ../SemaforoNet_bsp/\libucosii_bsp.a(alt_irq_handler.o)
 .text          0x00835e00      0x2c4 ../SemaforoNet_bsp/\libucosii_bsp.a(alt_open.o)
                0x00835edc                open
 .text          0x008360c4      0x180 ../SemaforoNet_bsp/\libucosii_bsp.a(alt_read.o)
                0x008360c4                alt_read
 .text          0x00836244       0x60 ../SemaforoNet_bsp/\libucosii_bsp.a(alt_release_fd.o)
                0x00836244                alt_release_fd
 .text          0x008362a4       0x38 ../SemaforoNet_bsp/\libucosii_bsp.a(alt_remap_cached.o)
                0x008362a4                alt_remap_cached
 .text          0x008362dc       0x40 ../SemaforoNet_bsp/\libucosii_bsp.a(alt_remap_uncached.o)
                0x008362dc                alt_remap_uncached
 .text          0x0083631c      0x1a8 ../SemaforoNet_bsp/\libucosii_bsp.a(alt_tick.o)
                0x0083631c                alt_alarm_stop
                0x008363b4                alt_tick
 .text          0x008364c4      0x180 ../SemaforoNet_bsp/\libucosii_bsp.a(alt_write.o)
                0x008364c4                alt_write
 .text          0x00836644       0x20 ../SemaforoNet_bsp/\libucosii_bsp.a(altera_nios2_qsys_irq.o)
                0x00836644                altera_nios2_qsys_irq_init
 .text          0x00836664       0xd0 ../SemaforoNet_bsp/\libucosii_bsp.a(os_cpu_a.o)
                0x00836664                OSCtxSw
                0x00836664                OSIntCtxSw
                0x008366f0                OSStartHighRdy
                0x00836710                OSStartTsk
 .text          0x00836734      0x424 ../SemaforoNet_bsp/\libucosii_bsp.a(os_cpu_c.o)
                0x00836734                OSTaskStkInit
                0x00836a44                OSTaskCreateHook
                0x00836a64                OSTaskDelHook
                0x00836a84                OSTaskSwHook
                0x00836aa0                OSTaskStatHook
                0x00836abc                OSTimeTickHook
                0x00836ae4                OSInitHookBegin
                0x00836b00                OSInitHookEnd
                0x00836b1c                OSTaskIdleHook
                0x00836b38                OSTCBInitHook
 .text          0x00836b58      0x460 ../SemaforoNet_bsp/\libucosii_bsp.a(altera_avalon_cfi_flash_amd.o)
                0x00836b58                alt_program_amd
                0x00836bc0                alt_erase_block_amd
 .text          0x00836fb8      0x460 ../SemaforoNet_bsp/\libucosii_bsp.a(altera_avalon_cfi_flash_intel.o)
                0x00836fb8                alt_program_intel
                0x0083703c                alt_erase_block_intel
 .text          0x00837418      0x238 ../SemaforoNet_bsp/\libucosii_bsp.a(altera_avalon_spi.o)
                0x00837418                alt_avalon_spi_command
 .text          0x00837650      0x444 ../SemaforoNet_bsp/\libucosii_bsp.a(allports.o)
                0x00837650                netmain_init
                0x0083774c                icmp_port_du
                0x008377d4                station_state
                0x00837938                sysuptime
                0x008379cc                packet_check
                0x00837a18                mcastlist
                0x00837a3c                prep_modules
 .text          0x00837a94      0x580 ../SemaforoNet_bsp/\libucosii_bsp.a(timeouts.o)
                0x00837a94                inet_timer
                0x00837d94                in_timerset
                0x00837f6c                in_timerkill
 .text          0x00838014       0xa4 ../SemaforoNet_bsp/\libucosii_bsp.a(tk_misc.o)
                0x00838014                create_apptasks
                0x00838038                task_stats
 .text          0x008380b8       0xb0 ../SemaforoNet_bsp/\libucosii_bsp.a(alt_iniche_fcntl.o)
                0x008380b8                fcntl
 .text          0x00838168     0x15b0 ../SemaforoNet_bsp/\libucosii_bsp.a(et_arp.o)
                0x00838168                etainit
                0x008381bc                et_send
                0x00838338                arp_free_pending
                0x008383c0                arp_send_pending
                0x00838434                send_arp
                0x008388cc                find_oldest_arp
                0x00838ac8                make_arp_entry
                0x00838bdc                arpReply
                0x00838e70                arprcv
                0x008390d0                send_via_arp
                0x008392a0                cb_arpent_tmo
                0x0083944c                grat_arp
 .text          0x00839718      0x298 ../SemaforoNet_bsp/\libucosii_bsp.a(iface.o)
                0x00839718                if_getbynum
                0x0083979c                isbcast
                0x0083987c                reg_type
                0x00839918                if_killsocks
 .text          0x008399b0     0x22a4 ../SemaforoNet_bsp/\libucosii_bsp.a(ip.o)
                0x008399b0                ip_init
                0x00839aac                ip_bldhead
                0x00839c50                ip_write_internal
                0x0083a3d0                ip_write
                0x0083a618                ip_write2
                0x0083a9c8                ip_raw_write
                0x0083aaa0                ip_fragment_lc
                0x0083af28                ip_fragment
                0x0083b54c                ip_mymach
                0x0083b5f8                ip_dump
                0x0083b8b0                iproute
                0x0083bb1c                ip_copypkt
 .text          0x0083bc54     0x1e08 ../SemaforoNet_bsp/\libucosii_bsp.a(ip_reasm.o)
                0x0083bc54                ip_reasm_match_frag_with_ire
                0x0083bd24                ip_reasm_determine_type_of_frag
                0x0083be10                ip_reasm_check_mem_useage
                0x0083bea8                ip_reasm_incr_mem_useage
                0x0083bf50                ip_reasm_decr_mem_useage
                0x0083bff0                ip_reasm_process_first_fragment
                0x0083c2d0                ip_reassm
                0x0083c370                ip_reasm_compute_overlap
                0x0083c900                ip_reasm_process_subsequent_fragments
                0x0083ce94                ip_reasm_find_ire
                0x0083cef8                ip_reasm_copy_queued_fragments_into_reassy_buffer
                0x0083d254                ip_reasm_process_timer_tick
                0x0083d374                ip_reasm_delete_ire
                0x0083d53c                ip_reasm_mark_compact_rfq
                0x0083d684                ipr_stats
                0x0083da08                ip_reasm_send_icmp_timex
 .text          0x0083da5c      0xe3c ../SemaforoNet_bsp/\libucosii_bsp.a(ipdemux.o)
                0x0083da5c                ip_rcv
                0x0083de5c                ip_rcv_phase2
                0x0083e468                ip_demux
 .text          0x0083e898      0x2f0 ../SemaforoNet_bsp/\libucosii_bsp.a(ipmc.o)
                0x0083e898                in_addmulti
                0x0083ea00                in_delmulti
                0x0083eb18                lookup_mcast
 .text          0x0083eb88       0xe4 ../SemaforoNet_bsp/\libucosii_bsp.a(ipport.o)
                0x0083eb88                prep_ifaces
                0x0083ec1c                netexit
                0x0083ec44                evtmap_setup
 .text          0x0083ec6c      0x550 ../SemaforoNet_bsp/\libucosii_bsp.a(ipraw.o)
                0x0083ec6c                ip_raw_open
                0x0083ed5c                ip_raw_close
                0x0083ee1c                ip_raw_input
                0x0083f054                ip_raw_alloc
                0x0083f120                ip_raw_free
                0x0083f160                ip_raw_maxalloc
 .text          0x0083f1bc      0x6f0 ../SemaforoNet_bsp/\libucosii_bsp.a(iproute.o)
                0x0083f1bc                rt_lookup
                0x0083f340                add_route
                0x0083f768                del_route
 .text          0x0083f8ac      0xe3c ../SemaforoNet_bsp/\libucosii_bsp.a(udp.o)
                0x0083f8ac                udpdemux
                0x00840104                udp_send
                0x008403bc                udpswap
                0x008404ec                udp_socket
                0x008405bc                udp_alloc
                0x0084067c                udp_maxalloc
                0x008406a8                udp_free
 .text          0x008406e8      0x2e8 ../SemaforoNet_bsp/\libucosii_bsp.a(igmp.o)
                0x008406e8                igmpv1_input
 .text          0x008409d0      0x7c0 ../SemaforoNet_bsp/\libucosii_bsp.a(igmp2.o)
                0x008409d0                igmpv2_input
                0x00840b30                igmpv2_process_report
                0x00840c7c                igmpv2_process_query
                0x00840ec8                igmpv2_chk_set_timer
                0x00841020                igmpv2_chk4_rtr_alert_opt
 .text          0x00841190      0x8fc ../SemaforoNet_bsp/\libucosii_bsp.a(ipopt.o)
                0x00841190                IPADDR_TO_NETP
                0x008412d8                ip_setmoptions
                0x008418c8                ip_getmoptions
                0x00841a08                ip_freemoptions
 .text          0x00841a8c      0x6e8 ../SemaforoNet_bsp/\libucosii_bsp.a(u_mctest.o)
                0x00841a8c                u_mctest_init
                0x00841abc                u_mctest_run
 .text          0x00842174      0x3d0 ../SemaforoNet_bsp/\libucosii_bsp.a(dhcsetup.o)
                0x00842174                dhc_setup
                0x00842440                dhc_main_ipset
 .text          0x00842544      0x40c ../SemaforoNet_bsp/\libucosii_bsp.a(memdev.o)
                0x00842544                init_memdev
                0x008425bc                md_fopen
                0x008425e4                md_fclose
                0x00842604                md_fread
                0x00842784                md_fwrite
                0x00842804                md_fseek
                0x00842830                md_ftell
                0x00842854                md_fgetc
                0x0084292c                md_unlink
 .text          0x00842950      0x1cc ../SemaforoNet_bsp/\libucosii_bsp.a(tcpcksum.o)
                0x00842950                tcp_cksum
 .text          0x00842b1c      0x900 ../SemaforoNet_bsp/\libucosii_bsp.a(in_pcb.o)
                0x00842b1c                in_pcballoc
                0x00842bb0                in_pcbdetach
                0x00842c04                in_pcbbind
                0x00842e58                in_pcbconnect
                0x00843068                in_pcbdisconnect
                0x008430c8                in_setsockaddr
                0x00843144                in_setpeeraddr
                0x008431c0                in_pcblookup
 .text          0x0084341c     0x1a74 ../SemaforoNet_bsp/\libucosii_bsp.a(vfsfiles.o)
                0x0084341c                set_vfopen_error
                0x00843444                get_vfopen_error
                0x00843464                vf_alloc_and_link_vop
                0x008434e0                vf_alloc_buffer
                0x008435b8                vf_free_buffer
                0x00843608                vfopen_locked
                0x00843970                vfopen
                0x008439c0                vfclose_locked
                0x00843b68                vfclose
                0x00843ba8                vfflush
                0x00843bf0                vfgets
                0x00843cd4                vfeof
                0x00843d2c                vunlink_flag_open_files
                0x00843d88                vunlink
                0x00843fa8                vfread
                0x00844154                vfwrite_locked
                0x0084453c                vfwrite
                0x0084459c                vfseek
                0x00844718                vftell
                0x0084484c                vgetc_locked
                0x0084496c                vgetc
                0x008449b4                vfslookup_locked
                0x00844aec                vfslookup
                0x00844b34                strippath
                0x00844d1c                isvfile_locked
                0x00844d80                isvfile
                0x00844dc8                vferror
                0x00844e34                vclearerr
 .text          0x00844e90       0x24 ../SemaforoNet_bsp/\libucosii_bsp.a(vfsport.o)
                0x00844e90                prep_vfs
 .text          0x00844eb4        0x0 ../SemaforoNet_bsp/\libucosii_bsp.a(alt_exception_entry.o)
 .text          0x00844eb4      0x1b4 ../SemaforoNet_bsp/\libucosii_bsp.a(alt_fcntl.o)
                0x00844eb4                alt_fcntl
 .text          0x00845068      0x120 ../SemaforoNet_bsp/\libucosii_bsp.a(alt_find_file.o)
                0x00845068                alt_find_file
 .text          0x00845188       0xf4 ../SemaforoNet_bsp/\libucosii_bsp.a(alt_get_fd.o)
                0x00845188                alt_get_fd
 .text          0x0084527c     0x130c ../SemaforoNet_bsp/\libucosii_bsp.a(icmp.o)
                0x0084527c                icmprcv
                0x00845eb0                icmp_destun
                0x00846200                icmp_timex
                0x00846534                icmp_du
 .text          0x00846588       0x14 c:/altera/13.0sp1/nios2eds/bin/gnu/h-i686-mingw32/bin/../lib/gcc/nios2-elf/4.1.2/../../../../nios2-elf/lib\libc.a(lib_a-atexit.o)
                0x00846588                atexit
 .text          0x0084659c       0x18 c:/altera/13.0sp1/nios2eds/bin/gnu/h-i686-mingw32/bin/../lib/gcc/nios2-elf/4.1.2/../../../../nios2-elf/lib\libc.a(lib_a-atoi.o)
                0x0084659c                _atoi_r
                0x008465a8                atoi
 .text          0x008465b4       0x1c c:/altera/13.0sp1/nios2eds/bin/gnu/h-i686-mingw32/bin/../lib/gcc/nios2-elf/4.1.2/../../../../nios2-elf/lib\libc.a(lib_a-calloc.o)
                0x008465b4                calloc
 .text          0x008465d0       0x74 c:/altera/13.0sp1/nios2eds/bin/gnu/h-i686-mingw32/bin/../lib/gcc/nios2-elf/4.1.2/../../../../nios2-elf/lib\libc.a(lib_a-memcmp.o)
                0x008465d0                memcmp
 .text          0x00846644       0x8c c:/altera/13.0sp1/nios2eds/bin/gnu/h-i686-mingw32/bin/../lib/gcc/nios2-elf/4.1.2/../../../../nios2-elf/lib\libc.a(lib_a-strcpy.o)
                0x00846644                strcpy
 .text          0x008466d0       0xf0 c:/altera/13.0sp1/nios2eds/bin/gnu/h-i686-mingw32/bin/../lib/gcc/nios2-elf/4.1.2/../../../../nios2-elf/lib\libc.a(lib_a-strncmp.o)
                0x008466d0                strncmp
 .text          0x008467c0       0x34 c:/altera/13.0sp1/nios2eds/bin/gnu/h-i686-mingw32/bin/../lib/gcc/nios2-elf/4.1.2/../../../../nios2-elf/lib\libc.a(lib_a-vprintf.o)
                0x008467c0                _vprintf_r
                0x008467d4                vprintf
 .text          0x008467f4       0x74 c:/altera/13.0sp1/nios2eds/bin/gnu/h-i686-mingw32/bin/../lib/gcc/nios2-elf/4.1.2/../../../../nios2-elf/lib\libc.a(lib_a-vsprintf.o)
                0x008467f4                _vsprintf_r
                0x00846844                vsprintf
 .text          0x00846868      0x134 c:/altera/13.0sp1/nios2eds/bin/gnu/h-i686-mingw32/bin/../lib/gcc/nios2-elf/4.1.2/../../../../nios2-elf/lib\libc.a(lib_a-__atexit.o)
                0x00846868                __register_exitproc
 *(.gnu.warning.*)
 *(.fini)
                0x0084699c                PROVIDE (__etext, ABSOLUTE (.))
                0x0084699c                PROVIDE (_etext, ABSOLUTE (.))
                0x0084699c                PROVIDE (etext, ABSOLUTE (.))
 *(.eh_frame_hdr)
                0x0084699c                . = ALIGN (0x4)
                0x0084699c                PROVIDE (__preinit_array_start, ABSOLUTE (.))
 *(.preinit_array)
                0x0084699c                PROVIDE (__preinit_array_end, ABSOLUTE (.))
                0x0084699c                PROVIDE (__init_array_start, ABSOLUTE (.))
 *(.init_array)
                0x0084699c                PROVIDE (__init_array_end, ABSOLUTE (.))
                0x0084699c                PROVIDE (__fini_array_start, ABSOLUTE (.))
 *(.fini_array)
                0x0084699c                PROVIDE (__fini_array_end, ABSOLUTE (.))
 *(.eh_frame)
 *(.gcc_except_table)
 *(.dynamic)
                0x0084699c                PROVIDE (__CTOR_LIST__, ABSOLUTE (.))
 *(.ctors)
 *(SORT(.ctors.*))
 .ctors.65535   0x0084699c        0x4 c:/altera/13.0sp1/nios2eds/bin/gnu/h-i686-mingw32/bin/../lib/gcc/nios2-elf/4.1.2/../../../../nios2-elf/lib\libc.a(lib_a-__call_atexit.o)
                0x008469a0                PROVIDE (__CTOR_END__, ABSOLUTE (.))
                0x008469a0                PROVIDE (__DTOR_LIST__, ABSOLUTE (.))
 *(.dtors)
 *(SORT(.dtors.*))
                0x008469a0                PROVIDE (__DTOR_END__, ABSOLUTE (.))
 *(.jcr)
                0x008469a0                . = ALIGN (0x4)

.rodata         0x008469a0     0x40b4
                0x008469a0                PROVIDE (__ram_rodata_start, ABSOLUTE (.))
                0x008469a0                . = ALIGN (0x4)
 *(.rodata .rodata.* .gnu.linkonce.r.*)
 .rodata        0x008469a0      0xba4 obj/default/alt_error_handler.o
 .rodata        0x00847544       0x64 obj/default/dm9000a.o
 .rodata        0x008475a8       0xac obj/default/main.o
 .rodata        0x00847654      0x234 obj/default/network_utilities.o
 .rodata        0x00847888      0x2d4 obj/default/simple_socket_server.o
 .rodata        0x00847b5c       0x14 c:/altera/13.0sp1/nios2eds/bin/gnu/h-i686-mingw32/bin/../lib/gcc/nios2-elf/4.1.2\libgcc.a(_thenan_df.o)
                0x00847b5c                __thenan_df
 .rodata        0x00847b70      0x100 c:/altera/13.0sp1/nios2eds/bin/gnu/h-i686-mingw32/bin/../lib/gcc/nios2-elf/4.1.2\libgcc.a(_clz.o)
                0x00847b70                __clz_tab
 .rodata        0x00847c70      0x281 c:/altera/13.0sp1/nios2eds/bin/gnu/h-i686-mingw32/bin/../lib/gcc/nios2-elf/4.1.2/../../../../nios2-elf/lib\libc.a(lib_a-ctype_.o)
                0x00847c70                _ctype_
 *fill*         0x00847ef1        0x3 00
 .rodata.str1.4
                0x00847ef4        0x2 c:/altera/13.0sp1/nios2eds/bin/gnu/h-i686-mingw32/bin/../lib/gcc/nios2-elf/4.1.2/../../../../nios2-elf/lib\libc.a(lib_a-impure.o)
                                  0x4 (size before relaxing)
 *fill*         0x00847ef6        0x2 00
 .rodata.str1.4
                0x00847ef8        0x3 c:/altera/13.0sp1/nios2eds/bin/gnu/h-i686-mingw32/bin/../lib/gcc/nios2-elf/4.1.2/../../../../nios2-elf/lib\libc.a(lib_a-perror.o)
                                  0x4 (size before relaxing)
 *fill*         0x00847efb        0x1 00
 .rodata.str1.4
                0x00847efc        0x2 c:/altera/13.0sp1/nios2eds/bin/gnu/h-i686-mingw32/bin/../lib/gcc/nios2-elf/4.1.2/../../../../nios2-elf/lib\libc.a(lib_a-puts.o)
                                  0x4 (size before relaxing)
 *fill*         0x00847efe        0x2 00
 .rodata.str1.4
                0x00847f00      0x7a2 c:/altera/13.0sp1/nios2eds/bin/gnu/h-i686-mingw32/bin/../lib/gcc/nios2-elf/4.1.2/../../../../nios2-elf/lib\libc.a(lib_a-strerror.o)
                                0x7a8 (size before relaxing)
 *fill*         0x008486a2        0x2 00
 .rodata.str1.4
                0x008486a4       0x5e c:/altera/13.0sp1/nios2eds/bin/gnu/h-i686-mingw32/bin/../lib/gcc/nios2-elf/4.1.2/../../../../nios2-elf/lib\libc.a(lib_a-vfprintf.o)
                                 0x60 (size before relaxing)
 .rodata        0x00848702       0x20 c:/altera/13.0sp1/nios2eds/bin/gnu/h-i686-mingw32/bin/../lib/gcc/nios2-elf/4.1.2/../../../../nios2-elf/lib\libc.a(lib_a-vfprintf.o)
 *fill*         0x00848722        0x2 00
 .rodata.str1.4
                0x00848724       0x10 c:/altera/13.0sp1/nios2eds/bin/gnu/h-i686-mingw32/bin/../lib/gcc/nios2-elf/4.1.2/../../../../nios2-elf/lib\libc.a(lib_a-dtoa.o)
                                 0x14 (size before relaxing)
 .rodata.str1.4
                0x00848734       0x10 c:/altera/13.0sp1/nios2eds/bin/gnu/h-i686-mingw32/bin/../lib/gcc/nios2-elf/4.1.2/../../../../nios2-elf/lib\libc.a(lib_a-locale.o)
                                 0x18 (size before relaxing)
 .rodata        0x00848744       0x30 c:/altera/13.0sp1/nios2eds/bin/gnu/h-i686-mingw32/bin/../lib/gcc/nios2-elf/4.1.2/../../../../nios2-elf/lib\libc.a(lib_a-locale.o)
 .rodata        0x00848774      0x124 c:/altera/13.0sp1/nios2eds/bin/gnu/h-i686-mingw32/bin/../lib/gcc/nios2-elf/4.1.2/../../../../nios2-elf/lib\libc.a(lib_a-mprec.o)
                0x00848774                __mprec_tens
                0x0084883c                __mprec_bigtens
                0x00848864                __mprec_tinytens
 .rodata        0x00848898       0x14 ../SemaforoNet_bsp/\libucosii_bsp.a(alt_main.o)
 .rodata        0x008488ac      0x120 ../SemaforoNet_bsp/\libucosii_bsp.a(os_core.o)
                0x008488ac                OSUnMapTbl
 .rodata        0x008489cc       0x60 ../SemaforoNet_bsp/\libucosii_bsp.a(alt_sys_init.o)
 .rodata        0x00848a2c       0xd8 ../SemaforoNet_bsp/\libucosii_bsp.a(ipnet.o)
 .rodata        0x00848b04       0xec ../SemaforoNet_bsp/\libucosii_bsp.a(ipstart.o)
 .rodata        0x00848bf0      0x54c ../SemaforoNet_bsp/\libucosii_bsp.a(igmp_cmn.o)
 .rodata        0x0084913c       0xb8 ../SemaforoNet_bsp/\libucosii_bsp.a(in_utils.o)
 .rodata        0x008491f4       0x34 ../SemaforoNet_bsp/\libucosii_bsp.a(netmain.o)
 .rodata        0x00849228       0x94 ../SemaforoNet_bsp/\libucosii_bsp.a(parseip.o)
 .rodata        0x008492bc      0x1a8 ../SemaforoNet_bsp/\libucosii_bsp.a(tk_crnos.o)
 .rodata        0x00849464        0x8 ../SemaforoNet_bsp/\libucosii_bsp.a(dhcpclnt.o)
 .rodata        0x0084946c      0x118 ../SemaforoNet_bsp/\libucosii_bsp.a(pktalloc.o)
 .rodata        0x00849584       0x84 ../SemaforoNet_bsp/\libucosii_bsp.a(udp_open.o)
 .rodata        0x00849608       0x2c ../SemaforoNet_bsp/\libucosii_bsp.a(brdutils.o)
 .rodata        0x00849634      0x26c ../SemaforoNet_bsp/\libucosii_bsp.a(osportco.o)
 .rodata        0x008498a0       0xa0 ../SemaforoNet_bsp/\libucosii_bsp.a(targnios.o)
 .rodata        0x00849940       0x90 ../SemaforoNet_bsp/\libucosii_bsp.a(nptcp.o)
 .rodata        0x008499d0        0x8 ../SemaforoNet_bsp/\libucosii_bsp.a(sockcall.o)
 .rodata        0x008499d8       0x50 ../SemaforoNet_bsp/\libucosii_bsp.a(socket.o)
 .rodata        0x00849a28       0x40 ../SemaforoNet_bsp/\libucosii_bsp.a(socket2.o)
 .rodata        0x00849a68       0x20 ../SemaforoNet_bsp/\libucosii_bsp.a(tcp_in.o)
 .rodata        0x00849a88       0x40 ../SemaforoNet_bsp/\libucosii_bsp.a(tcp_out.o)
 .rodata        0x00849ac8       0x24 ../SemaforoNet_bsp/\libucosii_bsp.a(tcp_subr.o)
 .rodata        0x00849aec       0x2c ../SemaforoNet_bsp/\libucosii_bsp.a(tcp_usr.o)
 .rodata        0x00849b18        0xc ../SemaforoNet_bsp/\libucosii_bsp.a(alt_dev.o)
 .rodata        0x00849b24        0x4 ../SemaforoNet_bsp/\libucosii_bsp.a(os_cpu_c.o)
 .rodata        0x00849b28      0x1d4 ../SemaforoNet_bsp/\libucosii_bsp.a(allports.o)
 .rodata        0x00849cfc       0x34 ../SemaforoNet_bsp/\libucosii_bsp.a(tk_misc.o)
 .rodata        0x00849d30       0x44 ../SemaforoNet_bsp/\libucosii_bsp.a(et_arp.o)
 .rodata        0x00849d74      0x1dc ../SemaforoNet_bsp/\libucosii_bsp.a(ip.o)
 .rodata        0x00849f50      0x158 ../SemaforoNet_bsp/\libucosii_bsp.a(ip_reasm.o)
 .rodata        0x0084a0a8      0x120 ../SemaforoNet_bsp/\libucosii_bsp.a(ipdemux.o)
 .rodata        0x0084a1c8       0x34 ../SemaforoNet_bsp/\libucosii_bsp.a(ipport.o)
 .rodata        0x0084a1fc       0x24 ../SemaforoNet_bsp/\libucosii_bsp.a(ipraw.o)
 .rodata        0x0084a220       0x38 ../SemaforoNet_bsp/\libucosii_bsp.a(iproute.o)
 .rodata        0x0084a258       0xe8 ../SemaforoNet_bsp/\libucosii_bsp.a(udp.o)
 .rodata        0x0084a340      0x2d0 ../SemaforoNet_bsp/\libucosii_bsp.a(u_mctest.o)
 .rodata        0x0084a610       0xf8 ../SemaforoNet_bsp/\libucosii_bsp.a(dhcsetup.o)
 .rodata        0x0084a708       0x34 ../SemaforoNet_bsp/\libucosii_bsp.a(vfsfiles.o)
 .rodata        0x0084a73c      0x318 ../SemaforoNet_bsp/\libucosii_bsp.a(icmp.o)
 *(.rodata1)
                0x0084aa54                . = ALIGN (0x4)
                0x0084aa54                PROVIDE (__ram_rodata_end, ABSOLUTE (.))
                0x008469a0                PROVIDE (__flash_rodata_start, LOADADDR (.rodata))

.rwdata         0x0084aa54     0x2124
                0x0084aa54                PROVIDE (__ram_rwdata_start, ABSOLUTE (.))
                0x0084aa54                . = ALIGN (0x4)
 *(.got.plt)
 *(.got)
 *(.data1)
 *(.data .data.* .gnu.linkonce.d.*)
 .data          0x0084aa54        0x0 ../SemaforoNet_bsp//obj/HAL/src/crt0.o
 .data          0x0084aa54        0x0 obj/default/alt_error_handler.o
 .data          0x0084aa54        0x0 obj/default/dm9000a.o
 .data          0x0084aa54        0x0 obj/default/led.o
 .data          0x0084aa54        0x0 obj/default/main.o
 .data          0x0084aa54        0x0 obj/default/network_utilities.o
 .data          0x0084aa54        0x0 obj/default/simple_socket_server.o
 .data          0x0084aa54        0x0 obj/default/tse_my_system.o
 .data          0x0084aa54        0x0 c:/altera/13.0sp1/nios2eds/bin/gnu/h-i686-mingw32/bin/../lib/gcc/nios2-elf/4.1.2\libgcc.a(_fixunsdfsi.o)
 .data          0x0084aa54        0x0 c:/altera/13.0sp1/nios2eds/bin/gnu/h-i686-mingw32/bin/../lib/gcc/nios2-elf/4.1.2\libgcc.a(_addsub_df.o)
 .data          0x0084aa54        0x0 c:/altera/13.0sp1/nios2eds/bin/gnu/h-i686-mingw32/bin/../lib/gcc/nios2-elf/4.1.2\libgcc.a(_mul_df.o)
 .data          0x0084aa54        0x0 c:/altera/13.0sp1/nios2eds/bin/gnu/h-i686-mingw32/bin/../lib/gcc/nios2-elf/4.1.2\libgcc.a(_ge_df.o)
 .data          0x0084aa54        0x0 c:/altera/13.0sp1/nios2eds/bin/gnu/h-i686-mingw32/bin/../lib/gcc/nios2-elf/4.1.2\libgcc.a(_df_to_si.o)
 .data          0x0084aa54        0x0 c:/altera/13.0sp1/nios2eds/bin/gnu/h-i686-mingw32/bin/../lib/gcc/nios2-elf/4.1.2\libgcc.a(_thenan_df.o)
 .data          0x0084aa54        0x0 c:/altera/13.0sp1/nios2eds/bin/gnu/h-i686-mingw32/bin/../lib/gcc/nios2-elf/4.1.2\libgcc.a(_usi_to_df.o)
 .data          0x0084aa54        0x0 c:/altera/13.0sp1/nios2eds/bin/gnu/h-i686-mingw32/bin/../lib/gcc/nios2-elf/4.1.2\libgcc.a(_muldi3.o)
 .data          0x0084aa54        0x0 c:/altera/13.0sp1/nios2eds/bin/gnu/h-i686-mingw32/bin/../lib/gcc/nios2-elf/4.1.2\libgcc.a(_clzsi2.o)
 .data          0x0084aa54        0x0 c:/altera/13.0sp1/nios2eds/bin/gnu/h-i686-mingw32/bin/../lib/gcc/nios2-elf/4.1.2\libgcc.a(_pack_df.o)
 .data          0x0084aa54        0x0 c:/altera/13.0sp1/nios2eds/bin/gnu/h-i686-mingw32/bin/../lib/gcc/nios2-elf/4.1.2\libgcc.a(_unpack_df.o)
 .data          0x0084aa54        0x0 c:/altera/13.0sp1/nios2eds/bin/gnu/h-i686-mingw32/bin/../lib/gcc/nios2-elf/4.1.2\libgcc.a(_fpcmp_parts_df.o)
 .data          0x0084aa54        0x0 c:/altera/13.0sp1/nios2eds/bin/gnu/h-i686-mingw32/bin/../lib/gcc/nios2-elf/4.1.2\libgcc.a(_clz.o)
 .data          0x0084aa54        0x0 c:/altera/13.0sp1/nios2eds/bin/gnu/h-i686-mingw32/bin/../lib/gcc/nios2-elf/4.1.2/../../../../nios2-elf/lib\libc.a(lib_a-ctype_.o)
 .data          0x0084aa54        0x0 c:/altera/13.0sp1/nios2eds/bin/gnu/h-i686-mingw32/bin/../lib/gcc/nios2-elf/4.1.2/../../../../nios2-elf/lib\libc.a(lib_a-exit.o)
 .data          0x0084aa54        0x0 c:/altera/13.0sp1/nios2eds/bin/gnu/h-i686-mingw32/bin/../lib/gcc/nios2-elf/4.1.2/../../../../nios2-elf/lib\libc.a(lib_a-fprintf.o)
 .data          0x0084aa54        0x0 c:/altera/13.0sp1/nios2eds/bin/gnu/h-i686-mingw32/bin/../lib/gcc/nios2-elf/4.1.2/../../../../nios2-elf/lib\libc.a(lib_a-fwrite.o)
 .data          0x0084aa54        0x0 c:/altera/13.0sp1/nios2eds/bin/gnu/h-i686-mingw32/bin/../lib/gcc/nios2-elf/4.1.2/../../../../nios2-elf/lib\libc.a(lib_a-getc.o)
 .data          0x0084aa54      0x400 c:/altera/13.0sp1/nios2eds/bin/gnu/h-i686-mingw32/bin/../lib/gcc/nios2-elf/4.1.2/../../../../nios2-elf/lib\libc.a(lib_a-impure.o)
 .data          0x0084ae54        0x0 c:/altera/13.0sp1/nios2eds/bin/gnu/h-i686-mingw32/bin/../lib/gcc/nios2-elf/4.1.2/../../../../nios2-elf/lib\libc.a(lib_a-malloc.o)
 .data          0x0084ae54      0x408 c:/altera/13.0sp1/nios2eds/bin/gnu/h-i686-mingw32/bin/../lib/gcc/nios2-elf/4.1.2/../../../../nios2-elf/lib\libc.a(lib_a-mallocr.o)
                0x0084ae54                __malloc_av_
 .data          0x0084b25c        0x0 c:/altera/13.0sp1/nios2eds/bin/gnu/h-i686-mingw32/bin/../lib/gcc/nios2-elf/4.1.2/../../../../nios2-elf/lib\libc.a(lib_a-memcpy.o)
 .data          0x0084b25c        0x0 c:/altera/13.0sp1/nios2eds/bin/gnu/h-i686-mingw32/bin/../lib/gcc/nios2-elf/4.1.2/../../../../nios2-elf/lib\libc.a(lib_a-memmove.o)
 .data          0x0084b25c        0x0 c:/altera/13.0sp1/nios2eds/bin/gnu/h-i686-mingw32/bin/../lib/gcc/nios2-elf/4.1.2/../../../../nios2-elf/lib\libc.a(lib_a-memset.o)
 .data          0x0084b25c        0x0 c:/altera/13.0sp1/nios2eds/bin/gnu/h-i686-mingw32/bin/../lib/gcc/nios2-elf/4.1.2/../../../../nios2-elf/lib\libc.a(lib_a-perror.o)
 .data          0x0084b25c        0x0 c:/altera/13.0sp1/nios2eds/bin/gnu/h-i686-mingw32/bin/../lib/gcc/nios2-elf/4.1.2/../../../../nios2-elf/lib\libc.a(lib_a-printf.o)
 .data          0x0084b25c        0x0 c:/altera/13.0sp1/nios2eds/bin/gnu/h-i686-mingw32/bin/../lib/gcc/nios2-elf/4.1.2/../../../../nios2-elf/lib\libc.a(lib_a-putc.o)
 .data          0x0084b25c        0x0 c:/altera/13.0sp1/nios2eds/bin/gnu/h-i686-mingw32/bin/../lib/gcc/nios2-elf/4.1.2/../../../../nios2-elf/lib\libc.a(lib_a-putchar.o)
 .data          0x0084b25c        0x0 c:/altera/13.0sp1/nios2eds/bin/gnu/h-i686-mingw32/bin/../lib/gcc/nios2-elf/4.1.2/../../../../nios2-elf/lib\libc.a(lib_a-puts.o)
 .data          0x0084b25c        0x0 c:/altera/13.0sp1/nios2eds/bin/gnu/h-i686-mingw32/bin/../lib/gcc/nios2-elf/4.1.2/../../../../nios2-elf/lib\libc.a(lib_a-rget.o)
 .data          0x0084b25c        0x0 c:/altera/13.0sp1/nios2eds/bin/gnu/h-i686-mingw32/bin/../lib/gcc/nios2-elf/4.1.2/../../../../nios2-elf/lib\libc.a(lib_a-sbrkr.o)
 .data          0x0084b25c        0x0 c:/altera/13.0sp1/nios2eds/bin/gnu/h-i686-mingw32/bin/../lib/gcc/nios2-elf/4.1.2/../../../../nios2-elf/lib\libc.a(lib_a-sprintf.o)
 .data          0x0084b25c        0x0 c:/altera/13.0sp1/nios2eds/bin/gnu/h-i686-mingw32/bin/../lib/gcc/nios2-elf/4.1.2/../../../../nios2-elf/lib\libc.a(lib_a-strchr.o)
 .data          0x0084b25c        0x0 c:/altera/13.0sp1/nios2eds/bin/gnu/h-i686-mingw32/bin/../lib/gcc/nios2-elf/4.1.2/../../../../nios2-elf/lib\libc.a(lib_a-strcmp.o)
 .data          0x0084b25c        0x0 c:/altera/13.0sp1/nios2eds/bin/gnu/h-i686-mingw32/bin/../lib/gcc/nios2-elf/4.1.2/../../../../nios2-elf/lib\libc.a(lib_a-strerror.o)
 .data          0x0084b25c        0x0 c:/altera/13.0sp1/nios2eds/bin/gnu/h-i686-mingw32/bin/../lib/gcc/nios2-elf/4.1.2/../../../../nios2-elf/lib\libc.a(lib_a-strlen.o)
 .data          0x0084b25c        0x0 c:/altera/13.0sp1/nios2eds/bin/gnu/h-i686-mingw32/bin/../lib/gcc/nios2-elf/4.1.2/../../../../nios2-elf/lib\libc.a(lib_a-strncpy.o)
 .data          0x0084b25c        0x0 c:/altera/13.0sp1/nios2eds/bin/gnu/h-i686-mingw32/bin/../lib/gcc/nios2-elf/4.1.2/../../../../nios2-elf/lib\libc.a(lib_a-strtol.o)
 .data          0x0084b25c        0x0 c:/altera/13.0sp1/nios2eds/bin/gnu/h-i686-mingw32/bin/../lib/gcc/nios2-elf/4.1.2/../../../../nios2-elf/lib\libc.a(lib_a-u_strerr.o)
 .data          0x0084b25c        0x0 c:/altera/13.0sp1/nios2eds/bin/gnu/h-i686-mingw32/bin/../lib/gcc/nios2-elf/4.1.2/../../../../nios2-elf/lib\libc.a(lib_a-vfprintf.o)
 .data          0x0084b25c        0x0 c:/altera/13.0sp1/nios2eds/bin/gnu/h-i686-mingw32/bin/../lib/gcc/nios2-elf/4.1.2/../../../../nios2-elf/lib\libc.a(lib_a-wbuf.o)
 .data          0x0084b25c        0x0 c:/altera/13.0sp1/nios2eds/bin/gnu/h-i686-mingw32/bin/../lib/gcc/nios2-elf/4.1.2/../../../../nios2-elf/lib\libc.a(lib_a-wsetup.o)
 .data          0x0084b25c        0x0 c:/altera/13.0sp1/nios2eds/bin/gnu/h-i686-mingw32/bin/../lib/gcc/nios2-elf/4.1.2/../../../../nios2-elf/lib\libc.a(lib_a-__call_atexit.o)
 .data          0x0084b25c        0x0 c:/altera/13.0sp1/nios2eds/bin/gnu/h-i686-mingw32/bin/../lib/gcc/nios2-elf/4.1.2/../../../../nios2-elf/lib\libc.a(lib_a-dtoa.o)
 .data          0x0084b25c        0x0 c:/altera/13.0sp1/nios2eds/bin/gnu/h-i686-mingw32/bin/../lib/gcc/nios2-elf/4.1.2/../../../../nios2-elf/lib\libc.a(lib_a-fflush.o)
 .data          0x0084b25c        0x0 c:/altera/13.0sp1/nios2eds/bin/gnu/h-i686-mingw32/bin/../lib/gcc/nios2-elf/4.1.2/../../../../nios2-elf/lib\libc.a(lib_a-findfp.o)
 .data          0x0084b25c        0x0 c:/altera/13.0sp1/nios2eds/bin/gnu/h-i686-mingw32/bin/../lib/gcc/nios2-elf/4.1.2/../../../../nios2-elf/lib\libc.a(lib_a-fputc.o)
 .data          0x0084b25c        0x0 c:/altera/13.0sp1/nios2eds/bin/gnu/h-i686-mingw32/bin/../lib/gcc/nios2-elf/4.1.2/../../../../nios2-elf/lib\libc.a(lib_a-fputs.o)
 .data          0x0084b25c        0x0 c:/altera/13.0sp1/nios2eds/bin/gnu/h-i686-mingw32/bin/../lib/gcc/nios2-elf/4.1.2/../../../../nios2-elf/lib\libc.a(lib_a-freer.o)
 .data          0x0084b25c        0x0 c:/altera/13.0sp1/nios2eds/bin/gnu/h-i686-mingw32/bin/../lib/gcc/nios2-elf/4.1.2/../../../../nios2-elf/lib\libc.a(lib_a-fvwrite.o)
 .data          0x0084b25c        0x0 c:/altera/13.0sp1/nios2eds/bin/gnu/h-i686-mingw32/bin/../lib/gcc/nios2-elf/4.1.2/../../../../nios2-elf/lib\libc.a(lib_a-fwalk.o)
 .data          0x0084b25c        0x0 c:/altera/13.0sp1/nios2eds/bin/gnu/h-i686-mingw32/bin/../lib/gcc/nios2-elf/4.1.2/../../../../nios2-elf/lib\libc.a(lib_a-int_errno.o)
 .data          0x0084b25c        0xc c:/altera/13.0sp1/nios2eds/bin/gnu/h-i686-mingw32/bin/../lib/gcc/nios2-elf/4.1.2/../../../../nios2-elf/lib\libc.a(lib_a-locale.o)
                0x0084b25c                __lc_ctype
 .data          0x0084b268        0x0 c:/altera/13.0sp1/nios2eds/bin/gnu/h-i686-mingw32/bin/../lib/gcc/nios2-elf/4.1.2/../../../../nios2-elf/lib\libc.a(lib_a-makebuf.o)
 .data          0x0084b268        0x0 c:/altera/13.0sp1/nios2eds/bin/gnu/h-i686-mingw32/bin/../lib/gcc/nios2-elf/4.1.2/../../../../nios2-elf/lib\libc.a(lib_a-memchr.o)
 .data          0x0084b268        0x0 c:/altera/13.0sp1/nios2eds/bin/gnu/h-i686-mingw32/bin/../lib/gcc/nios2-elf/4.1.2/../../../../nios2-elf/lib\libc.a(lib_a-mprec.o)
 .data          0x0084b268        0x0 c:/altera/13.0sp1/nios2eds/bin/gnu/h-i686-mingw32/bin/../lib/gcc/nios2-elf/4.1.2/../../../../nios2-elf/lib\libc.a(lib_a-reallocr.o)
 .data          0x0084b268        0x0 c:/altera/13.0sp1/nios2eds/bin/gnu/h-i686-mingw32/bin/../lib/gcc/nios2-elf/4.1.2/../../../../nios2-elf/lib\libc.a(lib_a-refill.o)
 .data          0x0084b268        0x0 c:/altera/13.0sp1/nios2eds/bin/gnu/h-i686-mingw32/bin/../lib/gcc/nios2-elf/4.1.2/../../../../nios2-elf/lib\libc.a(lib_a-s_isinfd.o)
 .data          0x0084b268        0x0 c:/altera/13.0sp1/nios2eds/bin/gnu/h-i686-mingw32/bin/../lib/gcc/nios2-elf/4.1.2/../../../../nios2-elf/lib\libc.a(lib_a-s_isnand.o)
 .data          0x0084b268        0x0 c:/altera/13.0sp1/nios2eds/bin/gnu/h-i686-mingw32/bin/../lib/gcc/nios2-elf/4.1.2/../../../../nios2-elf/lib\libc.a(lib_a-stdio.o)
 .data          0x0084b268        0x0 c:/altera/13.0sp1/nios2eds/bin/gnu/h-i686-mingw32/bin/../lib/gcc/nios2-elf/4.1.2/../../../../nios2-elf/lib\libc.a(lib_a-writer.o)
 .data          0x0084b268        0x0 c:/altera/13.0sp1/nios2eds/bin/gnu/h-i686-mingw32/bin/../lib/gcc/nios2-elf/4.1.2/../../../../nios2-elf/lib\libc.a(lib_a-callocr.o)
 .data          0x0084b268        0x0 c:/altera/13.0sp1/nios2eds/bin/gnu/h-i686-mingw32/bin/../lib/gcc/nios2-elf/4.1.2/../../../../nios2-elf/lib\libc.a(lib_a-closer.o)
 .data          0x0084b268        0x0 c:/altera/13.0sp1/nios2eds/bin/gnu/h-i686-mingw32/bin/../lib/gcc/nios2-elf/4.1.2/../../../../nios2-elf/lib\libc.a(lib_a-fclose.o)
 .data          0x0084b268        0x0 c:/altera/13.0sp1/nios2eds/bin/gnu/h-i686-mingw32/bin/../lib/gcc/nios2-elf/4.1.2/../../../../nios2-elf/lib\libc.a(lib_a-fstatr.o)
 .data          0x0084b268        0x0 c:/altera/13.0sp1/nios2eds/bin/gnu/h-i686-mingw32/bin/../lib/gcc/nios2-elf/4.1.2/../../../../nios2-elf/lib\libc.a(lib_a-isattyr.o)
 .data          0x0084b268        0x0 c:/altera/13.0sp1/nios2eds/bin/gnu/h-i686-mingw32/bin/../lib/gcc/nios2-elf/4.1.2/../../../../nios2-elf/lib\libc.a(lib_a-lseekr.o)
 .data          0x0084b268        0x0 c:/altera/13.0sp1/nios2eds/bin/gnu/h-i686-mingw32/bin/../lib/gcc/nios2-elf/4.1.2/../../../../nios2-elf/lib\libc.a(lib_a-readr.o)
 .data          0x0084b268        0x0 c:/altera/13.0sp1/nios2eds/bin/gnu/h-i686-mingw32/bin/../lib/gcc/nios2-elf/4.1.2\libgcc.a(_udivdi3.o)
 .data          0x0084b268        0x0 c:/altera/13.0sp1/nios2eds/bin/gnu/h-i686-mingw32/bin/../lib/gcc/nios2-elf/4.1.2\libgcc.a(_umoddi3.o)
 .data          0x0084b268        0x0 c:/altera/13.0sp1/nios2eds/bin/gnu/h-i686-mingw32/bin/../lib/gcc/nios2-elf/4.1.2\libgcc.a(_div_df.o)
 .data          0x0084b268        0x0 c:/altera/13.0sp1/nios2eds/bin/gnu/h-i686-mingw32/bin/../lib/gcc/nios2-elf/4.1.2\libgcc.a(_eq_df.o)
 .data          0x0084b268        0x0 c:/altera/13.0sp1/nios2eds/bin/gnu/h-i686-mingw32/bin/../lib/gcc/nios2-elf/4.1.2\libgcc.a(_ne_df.o)
 .data          0x0084b268        0x0 c:/altera/13.0sp1/nios2eds/bin/gnu/h-i686-mingw32/bin/../lib/gcc/nios2-elf/4.1.2\libgcc.a(_gt_df.o)
 .data          0x0084b268        0x0 c:/altera/13.0sp1/nios2eds/bin/gnu/h-i686-mingw32/bin/../lib/gcc/nios2-elf/4.1.2\libgcc.a(_lt_df.o)
 .data          0x0084b268        0x0 c:/altera/13.0sp1/nios2eds/bin/gnu/h-i686-mingw32/bin/../lib/gcc/nios2-elf/4.1.2\libgcc.a(_si_to_df.o)
 .data          0x0084b268        0x0 c:/altera/13.0sp1/nios2eds/bin/gnu/h-i686-mingw32/bin/../lib/gcc/nios2-elf/4.1.2\libgcc.a(lib2-divmod.o)
 .data          0x0084b268        0x0 ../SemaforoNet_bsp/\libucosii_bsp.a(alt_exit.o)
 .data          0x0084b268        0x0 ../SemaforoNet_bsp/\libucosii_bsp.a(alt_flash_dev.o)
 .data          0x0084b268        0x0 ../SemaforoNet_bsp/\libucosii_bsp.a(alt_fstat.o)
 .data          0x0084b268        0x0 ../SemaforoNet_bsp/\libucosii_bsp.a(alt_irq_register.o)
 .data          0x0084b268        0x0 ../SemaforoNet_bsp/\libucosii_bsp.a(alt_irq_vars.o)
 .data          0x0084b268        0x0 ../SemaforoNet_bsp/\libucosii_bsp.a(alt_isatty.o)
 .data          0x0084b268        0x0 ../SemaforoNet_bsp/\libucosii_bsp.a(alt_lseek.o)
 .data          0x0084b268        0x0 ../SemaforoNet_bsp/\libucosii_bsp.a(alt_main.o)
 .data          0x0084b268        0x0 ../SemaforoNet_bsp/\libucosii_bsp.a(alt_sbrk.o)
 .data          0x0084b268        0x0 ../SemaforoNet_bsp/\libucosii_bsp.a(alt_usleep.o)
 .data          0x0084b268        0x0 ../SemaforoNet_bsp/\libucosii_bsp.a(alt_env_lock.o)
 .data          0x0084b268        0x0 ../SemaforoNet_bsp/\libucosii_bsp.a(alt_malloc_lock.o)
 .data          0x0084b268        0x0 ../SemaforoNet_bsp/\libucosii_bsp.a(os_core.o)
 .data          0x0084b268        0x0 ../SemaforoNet_bsp/\libucosii_bsp.a(os_dbg.o)
 .data          0x0084b268        0x0 ../SemaforoNet_bsp/\libucosii_bsp.a(os_flag.o)
 .data          0x0084b268        0x0 ../SemaforoNet_bsp/\libucosii_bsp.a(os_mem.o)
 .data          0x0084b268        0x0 ../SemaforoNet_bsp/\libucosii_bsp.a(os_q.o)
 .data          0x0084b268        0x0 ../SemaforoNet_bsp/\libucosii_bsp.a(os_sem.o)
 .data          0x0084b268        0x0 ../SemaforoNet_bsp/\libucosii_bsp.a(os_task.o)
 .data          0x0084b268        0x0 ../SemaforoNet_bsp/\libucosii_bsp.a(os_time.o)
 .data          0x0084b268     0x1400 ../SemaforoNet_bsp/\libucosii_bsp.a(alt_sys_init.o)
 .data          0x0084c668        0x0 ../SemaforoNet_bsp/\libucosii_bsp.a(altera_avalon_cfi_flash.o)
 .data          0x0084c668        0x0 ../SemaforoNet_bsp/\libucosii_bsp.a(altera_avalon_cfi_flash_table.o)
 .data          0x0084c668        0x0 ../SemaforoNet_bsp/\libucosii_bsp.a(altera_avalon_epcs_flash_controller.o)
 .data          0x0084c668        0x0 ../SemaforoNet_bsp/\libucosii_bsp.a(altera_avalon_jtag_uart_fd.o)
 .data          0x0084c668        0x0 ../SemaforoNet_bsp/\libucosii_bsp.a(altera_avalon_jtag_uart_init.o)
 .data          0x0084c668        0x0 ../SemaforoNet_bsp/\libucosii_bsp.a(altera_avalon_jtag_uart_ioctl.o)
 .data          0x0084c668        0x0 ../SemaforoNet_bsp/\libucosii_bsp.a(altera_avalon_jtag_uart_read.o)
 .data          0x0084c668        0x0 ../SemaforoNet_bsp/\libucosii_bsp.a(altera_avalon_jtag_uart_write.o)
 .data          0x0084c668        0x0 ../SemaforoNet_bsp/\libucosii_bsp.a(altera_avalon_lcd_16207.o)
 .data          0x0084c668        0x0 ../SemaforoNet_bsp/\libucosii_bsp.a(altera_avalon_lcd_16207_fd.o)
 .data          0x0084c668        0x0 ../SemaforoNet_bsp/\libucosii_bsp.a(altera_avalon_timer_sc.o)
 .data          0x0084c668        0x0 ../SemaforoNet_bsp/\libucosii_bsp.a(altera_avalon_uart_fd.o)
 .data          0x0084c668        0x0 ../SemaforoNet_bsp/\libucosii_bsp.a(altera_avalon_uart_init.o)
 .data          0x0084c668        0x0 ../SemaforoNet_bsp/\libucosii_bsp.a(altera_avalon_uart_read.o)
 .data          0x0084c668        0x0 ../SemaforoNet_bsp/\libucosii_bsp.a(altera_avalon_uart_write.o)
 .data          0x0084c668        0x0 ../SemaforoNet_bsp/\libucosii_bsp.a(epcs_commands.o)
 .data          0x0084c668        0x0 ../SemaforoNet_bsp/\libucosii_bsp.a(alt_iniche_close.o)
 .data          0x0084c668        0x0 ../SemaforoNet_bsp/\libucosii_bsp.a(alt_iniche_dev.o)
 .data          0x0084c668        0x0 ../SemaforoNet_bsp/\libucosii_bsp.a(alt_iniche_read.o)
 .data          0x0084c668        0x0 ../SemaforoNet_bsp/\libucosii_bsp.a(alt_iniche_write.o)
 .data          0x0084c668        0x0 ../SemaforoNet_bsp/\libucosii_bsp.a(ipnet.o)
 .data          0x0084c668        0x0 ../SemaforoNet_bsp/\libucosii_bsp.a(ipstart.o)
 .data          0x0084c668        0x0 ../SemaforoNet_bsp/\libucosii_bsp.a(igmp_cmn.o)
 .data          0x0084c668        0x0 ../SemaforoNet_bsp/\libucosii_bsp.a(bsdsock.o)
 .data          0x0084c668        0x0 ../SemaforoNet_bsp/\libucosii_bsp.a(cksum.o)
 .data          0x0084c668        0x0 ../SemaforoNet_bsp/\libucosii_bsp.a(in_utils.o)
 .data          0x0084c668       0x30 ../SemaforoNet_bsp/\libucosii_bsp.a(netmain.o)
                0x0084c668                nettasks
 .data          0x0084c698        0x0 ../SemaforoNet_bsp/\libucosii_bsp.a(parseip.o)
 .data          0x0084c698        0x0 ../SemaforoNet_bsp/\libucosii_bsp.a(tk_crnos.o)
 .data          0x0084c698        0x0 ../SemaforoNet_bsp/\libucosii_bsp.a(dhcpclnt.o)
 .data          0x0084c698        0x0 ../SemaforoNet_bsp/\libucosii_bsp.a(dhcputil.o)
 .data          0x0084c698        0x0 ../SemaforoNet_bsp/\libucosii_bsp.a(pktalloc.o)
 .data          0x0084c698        0x0 ../SemaforoNet_bsp/\libucosii_bsp.a(q.o)
 .data          0x0084c698        0x0 ../SemaforoNet_bsp/\libucosii_bsp.a(udp_open.o)
 .data          0x0084c698        0x0 ../SemaforoNet_bsp/\libucosii_bsp.a(asm_cksum.o)
 .data          0x0084c698        0x0 ../SemaforoNet_bsp/\libucosii_bsp.a(brdutils.o)
 .data          0x0084c698        0x0 ../SemaforoNet_bsp/\libucosii_bsp.a(osportco.o)
 .data          0x0084c698        0x0 ../SemaforoNet_bsp/\libucosii_bsp.a(targnios.o)
 .data          0x0084c698       0x48 ../SemaforoNet_bsp/\libucosii_bsp.a(nptcp.o)
                0x0084c698                tcp_protosw
                0x0084c6b0                udp_protosw
                0x0084c6c8                rawip_protosw
 .data          0x0084c6e0        0x0 ../SemaforoNet_bsp/\libucosii_bsp.a(rawsock.o)
 .data          0x0084c6e0        0x0 ../SemaforoNet_bsp/\libucosii_bsp.a(sockcall.o)
 .data          0x0084c6e0        0x0 ../SemaforoNet_bsp/\libucosii_bsp.a(socket.o)
 .data          0x0084c6e0        0x0 ../SemaforoNet_bsp/\libucosii_bsp.a(socket2.o)
 .data          0x0084c6e0        0x0 ../SemaforoNet_bsp/\libucosii_bsp.a(soselect.o)
 .data          0x0084c6e0        0x0 ../SemaforoNet_bsp/\libucosii_bsp.a(tcp_in.o)
 .data          0x0084c6e0        0xb ../SemaforoNet_bsp/\libucosii_bsp.a(tcp_out.o)
                0x0084c6e0                tcp_outflags
 .data          0x0084c6eb        0x0 ../SemaforoNet_bsp/\libucosii_bsp.a(tcp_subr.o)
 .data          0x0084c6eb        0xd ../SemaforoNet_bsp/\libucosii_bsp.a(tcp_timr.o)
                0x0084c6eb                tcp_backoff
 .data          0x0084c6f8        0x0 ../SemaforoNet_bsp/\libucosii_bsp.a(tcp_usr.o)
 .data          0x0084c6f8        0x0 ../SemaforoNet_bsp/\libucosii_bsp.a(tcpport.o)
 .data          0x0084c6f8        0x0 ../SemaforoNet_bsp/\libucosii_bsp.a(udpsock.o)
 .data          0x0084c6f8        0x0 ../SemaforoNet_bsp/\libucosii_bsp.a(alt_alarm_start.o)
 .data          0x0084c6f8        0x0 ../SemaforoNet_bsp/\libucosii_bsp.a(alt_busy_sleep.o)
 .data          0x0084c6f8        0x0 ../SemaforoNet_bsp/\libucosii_bsp.a(alt_close.o)
 .data          0x0084c6f8        0x0 ../SemaforoNet_bsp/\libucosii_bsp.a(alt_dcache_flush.o)
 .data          0x0084c6f8      0x1a8 ../SemaforoNet_bsp/\libucosii_bsp.a(alt_dev.o)
                0x0084c6f8                alt_dev_null
                0x0084c720                alt_fd_list
 .data          0x0084c8a0        0x0 ../SemaforoNet_bsp/\libucosii_bsp.a(alt_dev_llist_insert.o)
 .data          0x0084c8a0        0x0 ../SemaforoNet_bsp/\libucosii_bsp.a(alt_do_ctors.o)
 .data          0x0084c8a0        0x0 ../SemaforoNet_bsp/\libucosii_bsp.a(alt_do_dtors.o)
 .data          0x0084c8a0        0x0 ../SemaforoNet_bsp/\libucosii_bsp.a(alt_errno.o)
 .data          0x0084c8a0        0x0 ../SemaforoNet_bsp/\libucosii_bsp.a(alt_find_dev.o)
 .data          0x0084c8a0        0x0 ../SemaforoNet_bsp/\libucosii_bsp.a(alt_iic.o)
 .data          0x0084c8a0        0x0 ../SemaforoNet_bsp/\libucosii_bsp.a(alt_iic_isr_register.o)
 .data          0x0084c8a0        0x0 ../SemaforoNet_bsp/\libucosii_bsp.a(alt_io_redirect.o)
 .data          0x0084c8a0        0x0 ../SemaforoNet_bsp/\libucosii_bsp.a(alt_irq_entry.o)
 .data          0x0084c8a0        0x0 ../SemaforoNet_bsp/\libucosii_bsp.a(alt_irq_handler.o)
 .data          0x0084c8a0        0x0 ../SemaforoNet_bsp/\libucosii_bsp.a(alt_open.o)
 .data          0x0084c8a0        0x0 ../SemaforoNet_bsp/\libucosii_bsp.a(alt_read.o)
 .data          0x0084c8a0        0x0 ../SemaforoNet_bsp/\libucosii_bsp.a(alt_release_fd.o)
 .data          0x0084c8a0        0x0 ../SemaforoNet_bsp/\libucosii_bsp.a(alt_remap_cached.o)
 .data          0x0084c8a0        0x0 ../SemaforoNet_bsp/\libucosii_bsp.a(alt_remap_uncached.o)
 .data          0x0084c8a0        0x0 ../SemaforoNet_bsp/\libucosii_bsp.a(alt_tick.o)
 .data          0x0084c8a0        0x0 ../SemaforoNet_bsp/\libucosii_bsp.a(alt_write.o)
 .data          0x0084c8a0        0x0 ../SemaforoNet_bsp/\libucosii_bsp.a(altera_nios2_qsys_irq.o)
 .data          0x0084c8a0        0x0 ../SemaforoNet_bsp/\libucosii_bsp.a(os_cpu_a.o)
 .data          0x0084c8a0        0x0 ../SemaforoNet_bsp/\libucosii_bsp.a(os_cpu_c.o)
 .data          0x0084c8a0        0x0 ../SemaforoNet_bsp/\libucosii_bsp.a(altera_avalon_cfi_flash_amd.o)
 .data          0x0084c8a0        0x0 ../SemaforoNet_bsp/\libucosii_bsp.a(altera_avalon_cfi_flash_intel.o)
 .data          0x0084c8a0        0x0 ../SemaforoNet_bsp/\libucosii_bsp.a(altera_avalon_spi.o)
 .data          0x0084c8a0       0x18 ../SemaforoNet_bsp/\libucosii_bsp.a(allports.o)
                0x0084c8a0                icmpdu_types
 .data          0x0084c8b8        0x0 ../SemaforoNet_bsp/\libucosii_bsp.a(timeouts.o)
 .data          0x0084c8b8        0x0 ../SemaforoNet_bsp/\libucosii_bsp.a(tk_misc.o)
 .data          0x0084c8b8        0x0 ../SemaforoNet_bsp/\libucosii_bsp.a(alt_iniche_fcntl.o)
 .data          0x0084c8b8        0x0 ../SemaforoNet_bsp/\libucosii_bsp.a(et_arp.o)
 .data          0x0084c8b8        0x0 ../SemaforoNet_bsp/\libucosii_bsp.a(iface.o)
 .data          0x0084c8b8        0x0 ../SemaforoNet_bsp/\libucosii_bsp.a(ip.o)
 .data          0x0084c8b8        0x0 ../SemaforoNet_bsp/\libucosii_bsp.a(ip_reasm.o)
 .data          0x0084c8b8        0x0 ../SemaforoNet_bsp/\libucosii_bsp.a(ipdemux.o)
 .data          0x0084c8b8        0x0 ../SemaforoNet_bsp/\libucosii_bsp.a(ipmc.o)
 .data          0x0084c8b8        0x0 ../SemaforoNet_bsp/\libucosii_bsp.a(ipport.o)
 .data          0x0084c8b8        0x0 ../SemaforoNet_bsp/\libucosii_bsp.a(ipraw.o)
 .data          0x0084c8b8        0x9 ../SemaforoNet_bsp/\libucosii_bsp.a(iproute.o)
                0x0084c8b8                rtp_priority
 .data          0x0084c8c1        0x0 ../SemaforoNet_bsp/\libucosii_bsp.a(udp.o)
 .data          0x0084c8c1        0x0 ../SemaforoNet_bsp/\libucosii_bsp.a(igmp.o)
 .data          0x0084c8c1        0x0 ../SemaforoNet_bsp/\libucosii_bsp.a(igmp2.o)
 .data          0x0084c8c1        0x0 ../SemaforoNet_bsp/\libucosii_bsp.a(ipopt.o)
 .data          0x0084c8c1        0x0 ../SemaforoNet_bsp/\libucosii_bsp.a(u_mctest.o)
 .data          0x0084c8c1        0x0 ../SemaforoNet_bsp/\libucosii_bsp.a(dhcsetup.o)
 *fill*         0x0084c8c1        0x3 00
 .data          0x0084c8c4       0xd4 ../SemaforoNet_bsp/\libucosii_bsp.a(memdev.o)
                0x0084c8c4                mdio
                0x0084c8e8                mdlist
 .data          0x0084c998        0x0 ../SemaforoNet_bsp/\libucosii_bsp.a(tcpcksum.o)
 .data          0x0084c998        0x0 ../SemaforoNet_bsp/\libucosii_bsp.a(in_pcb.o)
 .data          0x0084c998       0x80 ../SemaforoNet_bsp/\libucosii_bsp.a(vfsfiles.o)
                0x0084c998                vfs_root_path
 .data          0x0084ca18        0x0 ../SemaforoNet_bsp/\libucosii_bsp.a(vfsport.o)
 .data          0x0084ca18        0x0 ../SemaforoNet_bsp/\libucosii_bsp.a(alt_exception_entry.o)
 .data          0x0084ca18        0x0 ../SemaforoNet_bsp/\libucosii_bsp.a(alt_fcntl.o)
 .data          0x0084ca18        0x0 ../SemaforoNet_bsp/\libucosii_bsp.a(alt_find_file.o)
 .data          0x0084ca18        0x0 ../SemaforoNet_bsp/\libucosii_bsp.a(alt_get_fd.o)
 .data          0x0084ca18       0x18 ../SemaforoNet_bsp/\libucosii_bsp.a(icmp.o)
 .data          0x0084ca30        0x0 c:/altera/13.0sp1/nios2eds/bin/gnu/h-i686-mingw32/bin/../lib/gcc/nios2-elf/4.1.2/../../../../nios2-elf/lib\libc.a(lib_a-atexit.o)
 .data          0x0084ca30        0x0 c:/altera/13.0sp1/nios2eds/bin/gnu/h-i686-mingw32/bin/../lib/gcc/nios2-elf/4.1.2/../../../../nios2-elf/lib\libc.a(lib_a-atoi.o)
 .data          0x0084ca30        0x0 c:/altera/13.0sp1/nios2eds/bin/gnu/h-i686-mingw32/bin/../lib/gcc/nios2-elf/4.1.2/../../../../nios2-elf/lib\libc.a(lib_a-calloc.o)
 .data          0x0084ca30        0x0 c:/altera/13.0sp1/nios2eds/bin/gnu/h-i686-mingw32/bin/../lib/gcc/nios2-elf/4.1.2/../../../../nios2-elf/lib\libc.a(lib_a-memcmp.o)
 .data          0x0084ca30        0x0 c:/altera/13.0sp1/nios2eds/bin/gnu/h-i686-mingw32/bin/../lib/gcc/nios2-elf/4.1.2/../../../../nios2-elf/lib\libc.a(lib_a-strcpy.o)
 .data          0x0084ca30        0x0 c:/altera/13.0sp1/nios2eds/bin/gnu/h-i686-mingw32/bin/../lib/gcc/nios2-elf/4.1.2/../../../../nios2-elf/lib\libc.a(lib_a-strncmp.o)
 .data          0x0084ca30        0x0 c:/altera/13.0sp1/nios2eds/bin/gnu/h-i686-mingw32/bin/../lib/gcc/nios2-elf/4.1.2/../../../../nios2-elf/lib\libc.a(lib_a-vprintf.o)
 .data          0x0084ca30        0x0 c:/altera/13.0sp1/nios2eds/bin/gnu/h-i686-mingw32/bin/../lib/gcc/nios2-elf/4.1.2/../../../../nios2-elf/lib\libc.a(lib_a-vsprintf.o)
 .data          0x0084ca30        0x0 c:/altera/13.0sp1/nios2eds/bin/gnu/h-i686-mingw32/bin/../lib/gcc/nios2-elf/4.1.2/../../../../nios2-elf/lib\libc.a(lib_a-__atexit.o)
                0x00854a30                _gp = ABSOLUTE ((. + 0x8000))
                0x00854a30                PROVIDE (gp, _gp)
 *(.rwdata .rwdata.*)
 *(.sdata .sdata.* .gnu.linkonce.s.*)
 .sdata         0x0084ca30        0x4 c:/altera/13.0sp1/nios2eds/bin/gnu/h-i686-mingw32/bin/../lib/gcc/nios2-elf/4.1.2/../../../../nios2-elf/lib\libc.a(lib_a-ctype_.o)
                0x0084ca30                __ctype_ptr
 .sdata         0x0084ca34        0x8 c:/altera/13.0sp1/nios2eds/bin/gnu/h-i686-mingw32/bin/../lib/gcc/nios2-elf/4.1.2/../../../../nios2-elf/lib\libc.a(lib_a-impure.o)
                0x0084ca34                _impure_ptr
                0x0084ca38                _global_impure_ptr
 .sdata         0x0084ca3c        0x8 c:/altera/13.0sp1/nios2eds/bin/gnu/h-i686-mingw32/bin/../lib/gcc/nios2-elf/4.1.2/../../../../nios2-elf/lib\libc.a(lib_a-mallocr.o)
                0x0084ca3c                __malloc_trim_threshold
                0x0084ca40                __malloc_sbrk_base
 .sdata         0x0084ca44        0x8 c:/altera/13.0sp1/nios2eds/bin/gnu/h-i686-mingw32/bin/../lib/gcc/nios2-elf/4.1.2/../../../../nios2-elf/lib\libc.a(lib_a-locale.o)
                0x0084ca44                __mb_cur_max
 .sdata         0x0084ca4c        0x8 ../SemaforoNet_bsp/\libucosii_bsp.a(alt_flash_dev.o)
                0x0084ca4c                alt_flash_dev_list
 .sdata         0x0084ca54        0x4 ../SemaforoNet_bsp/\libucosii_bsp.a(alt_irq_vars.o)
                0x0084ca54                alt_priority_mask
 .sdata         0x0084ca58        0x4 ../SemaforoNet_bsp/\libucosii_bsp.a(alt_sbrk.o)
 .sdata         0x0084ca5c        0x4 ../SemaforoNet_bsp/\libucosii_bsp.a(alt_env_lock.o)
 .sdata         0x0084ca60        0x4 ../SemaforoNet_bsp/\libucosii_bsp.a(alt_malloc_lock.o)
 .sdata         0x0084ca64       0x74 ../SemaforoNet_bsp/\libucosii_bsp.a(os_dbg.o)
                0x0084ca64                OSDebugEn
                0x0084ca68                OSEndiannessTest
                0x0084ca6c                OSEventEn
                0x0084ca6e                OSEventMax
                0x0084ca70                OSEventNameSize
                0x0084ca72                OSEventSize
                0x0084ca74                OSEventTblSize
                0x0084ca76                OSEventMultiEn
                0x0084ca78                OSFlagEn
                0x0084ca7a                OSFlagGrpSize
                0x0084ca7c                OSFlagNodeSize
                0x0084ca7e                OSFlagWidth
                0x0084ca80                OSFlagMax
                0x0084ca82                OSFlagNameSize
                0x0084ca84                OSLowestPrio
                0x0084ca86                OSMboxEn
                0x0084ca88                OSMemEn
                0x0084ca8a                OSMemMax
                0x0084ca8c                OSMemNameSize
                0x0084ca8e                OSMemSize
                0x0084ca90                OSMemTblSize
                0x0084ca92                OSMutexEn
                0x0084ca94                OSPtrSize
                0x0084ca96                OSQEn
                0x0084ca98                OSQMax
                0x0084ca9a                OSQSize
                0x0084ca9c                OSRdyTblSize
                0x0084ca9e                OSSemEn
                0x0084caa0                OSStkWidth
                0x0084caa2                OSTaskCreateEn
                0x0084caa4                OSTaskCreateExtEn
                0x0084caa6                OSTaskDelEn
                0x0084caa8                OSTaskIdleStkSize
                0x0084caaa                OSTaskProfileEn
                0x0084caac                OSTaskMax
                0x0084caae                OSTaskNameSize
                0x0084cab0                OSTaskStatEn
                0x0084cab2                OSTaskStatStkSize
                0x0084cab4                OSTaskStatStkChkEn
                0x0084cab6                OSTaskSwHookEn
                0x0084cab8                OSTCBPrioTblMax
                0x0084caba                OSTCBSize
                0x0084cabc                OSTicksPerSec
                0x0084cabe                OSTimeTickHookEn
                0x0084cac0                OSVersionNbr
                0x0084cac2                OSTmrEn
                0x0084cac4                OSTmrCfgMax
                0x0084cac6                OSTmrCfgNameSize
                0x0084cac8                OSTmrCfgWheelSize
                0x0084caca                OSTmrCfgTicksPerSec
                0x0084cacc                OSTmrSize
                0x0084cace                OSTmrTblSize
                0x0084cad0                OSTmrWheelSize
                0x0084cad2                OSTmrWheelTblSize
                0x0084cad4                OSDataSize
 .sdata         0x0084cad8        0x4 ../SemaforoNet_bsp/\libucosii_bsp.a(altera_avalon_lcd_16207.o)
 .sdata         0x0084cadc        0x8 ../SemaforoNet_bsp/\libucosii_bsp.a(alt_iniche_dev.o)
                0x0084cadc                alt_iniche_dev_list
 .sdata         0x0084cae4        0x4 ../SemaforoNet_bsp/\libucosii_bsp.a(ipstart.o)
                0x0084cae4                ipmcfail_str
 .sdata         0x0084cae8        0x4 ../SemaforoNet_bsp/\libucosii_bsp.a(cksum.o)
 .sdata         0x0084caec        0x4 ../SemaforoNet_bsp/\libucosii_bsp.a(netmain.o)
                0x0084caec                num_net_tasks
 .sdata         0x0084caf0        0x4 ../SemaforoNet_bsp/\libucosii_bsp.a(parseip.o)
                0x0084caf0                pton_error
 .sdata         0x0084caf4        0xc ../SemaforoNet_bsp/\libucosii_bsp.a(dhcpclnt.o)
                0x0084caf4                xids
                0x0084caf8                reqlist
                0x0084cafc                reqlist_len
 .sdata         0x0084cb00       0x10 ../SemaforoNet_bsp/\libucosii_bsp.a(pktalloc.o)
                0x0084cb00                lilbufs
                0x0084cb04                lilbufsiz
                0x0084cb08                bigbufs
                0x0084cb0c                bigbufsiz
 .sdata         0x0084cb10        0x4 ../SemaforoNet_bsp/\libucosii_bsp.a(brdutils.o)
                0x0084cb10                kb_last
 .sdata         0x0084cb14        0x4 ../SemaforoNet_bsp/\libucosii_bsp.a(nptcp.o)
                0x0084cb14                TCPTV_MSL
 .sdata         0x0084cb18        0x2 ../SemaforoNet_bsp/\libucosii_bsp.a(socket.o)
                0x0084cb18                socket_defaults
 .sdata         0x0084cb1a        0x1 ../SemaforoNet_bsp/\libucosii_bsp.a(tcp_in.o)
                0x0084cb1a                tcprexmtthresh
 *fill*         0x0084cb1b        0x1 00
 .sdata         0x0084cb1c        0x4 ../SemaforoNet_bsp/\libucosii_bsp.a(tcp_subr.o)
                0x0084cb1c                tcp_ttl
 .sdata         0x0084cb20        0x8 ../SemaforoNet_bsp/\libucosii_bsp.a(tcp_timr.o)
                0x0084cb20                tcp_keepidle
                0x0084cb24                tcp_keepintvl
 .sdata         0x0084cb28        0x8 ../SemaforoNet_bsp/\libucosii_bsp.a(tcp_usr.o)
                0x0084cb28                tcp_sendspace
                0x0084cb2c                tcp_recvspace
 .sdata         0x0084cb30       0x14 ../SemaforoNet_bsp/\libucosii_bsp.a(alt_dev.o)
                0x0084cb30                alt_fs_list
                0x0084cb38                alt_dev_list
                0x0084cb40                alt_max_fd
 .sdata         0x0084cb44        0x4 ../SemaforoNet_bsp/\libucosii_bsp.a(alt_errno.o)
                0x0084cb44                alt_errno
 .sdata         0x0084cb48        0x8 ../SemaforoNet_bsp/\libucosii_bsp.a(alt_tick.o)
                0x0084cb48                alt_alarm_list
 .sdata         0x0084cb50       0x10 ../SemaforoNet_bsp/\libucosii_bsp.a(allports.o)
                0x0084cb50                name
                0x0084cb54                prompt
                0x0084cb58                pingdelay
                0x0084cb5c                deflength
 .sdata         0x0084cb60        0x4 ../SemaforoNet_bsp/\libucosii_bsp.a(et_arp.o)
                0x0084cb60                arp_ageout
 .sdata         0x0084cb64        0x8 ../SemaforoNet_bsp/\libucosii_bsp.a(ip.o)
                0x0084cb68                ipRoutes
 .sdata         0x0084cb6c        0x4 ../SemaforoNet_bsp/\libucosii_bsp.a(u_mctest.o)
 .sdata         0x0084cb70        0x4 ../SemaforoNet_bsp/\libucosii_bsp.a(memdev.o)
                0x0084cb70                mdlist_size
 .sdata         0x0084cb74        0x4 ../SemaforoNet_bsp/\libucosii_bsp.a(vfsfiles.o)
                0x0084cb74                http_root_path
 *(.sdata2 .sdata2.* .gnu.linkonce.s2.*)
                0x0084cb78                . = ALIGN (0x4)
                0x0084cb78                _edata = ABSOLUTE (.)
                0x0084cb78                PROVIDE (edata, ABSOLUTE (.))
                0x0084cb78                PROVIDE (__ram_rwdata_end, ABSOLUTE (.))
                0x0084aa54                PROVIDE (__flash_rwdata_start, LOADADDR (.rwdata))

.bss            0x0084cb78     0xaa20
                0x0084cb78                __bss_start = ABSOLUTE (.)
                0x0084cb78                PROVIDE (__sbss_start, ABSOLUTE (.))
                0x0084cb78                PROVIDE (___sbss_start, ABSOLUTE (.))
 *(.dynsbss)
 *(.sbss .sbss.* .gnu.linkonce.sb.*)
 .sbss          0x0084cb78        0x8 obj/default/dm9000a.o
                0x0084cb78                autoReset
                0x0084cb7c                netisrs
 .sbss          0x0084cb80        0x8 obj/default/network_utilities.o
                0x0084cb80                last_flash_sector_offset
                0x0084cb84                last_flash_sector
 .sbss          0x0084cb88       0x10 obj/default/simple_socket_server.o
                0x0084cb8c                SSSLEDCommandQ
                0x0084cb90                SSSLEDLightshowSem
                0x0084cb94                SSSLEDEventFlag
 .sbss          0x0084cb98        0xc c:/altera/13.0sp1/nios2eds/bin/gnu/h-i686-mingw32/bin/../lib/gcc/nios2-elf/4.1.2/../../../../nios2-elf/lib\libc.a(lib_a-mallocr.o)
                0x0084cb98                __malloc_top_pad
                0x0084cb9c                __malloc_max_sbrked_mem
                0x0084cba0                __malloc_max_total_mem
 .sbss          0x0084cba4        0x4 c:/altera/13.0sp1/nios2eds/bin/gnu/h-i686-mingw32/bin/../lib/gcc/nios2-elf/4.1.2/../../../../nios2-elf/lib\libc.a(lib_a-int_errno.o)
                0x0084cba4                errno
 .sbss          0x0084cba8        0xc c:/altera/13.0sp1/nios2eds/bin/gnu/h-i686-mingw32/bin/../lib/gcc/nios2-elf/4.1.2/../../../../nios2-elf/lib\libc.a(lib_a-locale.o)
                0x0084cba8                __nlocale_changed
                0x0084cbac                __mlocale_changed
                0x0084cbb0                _PathLocale
 .sbss          0x0084cbb4        0x4 ../SemaforoNet_bsp/\libucosii_bsp.a(alt_irq_vars.o)
                0x0084cbb4                alt_irq_active
 .sbss          0x0084cbb8        0xc ../SemaforoNet_bsp/\libucosii_bsp.a(alt_main.o)
                0x0084cbb8                alt_argc
                0x0084cbbc                alt_argv
                0x0084cbc0                alt_envp
 .sbss          0x0084cbc4        0x8 ../SemaforoNet_bsp/\libucosii_bsp.a(alt_env_lock.o)
                0x0084cbc8                alt_envsem
 .sbss          0x0084cbcc        0x8 ../SemaforoNet_bsp/\libucosii_bsp.a(alt_malloc_lock.o)
                0x0084cbd0                alt_heapsem
 .sbss          0x0084cbd4       0x50 ../SemaforoNet_bsp/\libucosii_bsp.a(os_core.o)
                0x0084cbd4                OSLockNesting
                0x0084cbd5                OSRunning
                0x0084cbd8                OSIdleCtr
                0x0084cbdc                OSPrioHighRdy
                0x0084cbdd                OSPrioCur
                0x0084cbe0                OSTCBList
                0x0084cbe4                OSTickStepState
                0x0084cbe8                OSCtxSwCtr
                0x0084cbec                OSIdleCtrMax
                0x0084cbf0                OSTCBFreeList
                0x0084cbf4                OSCPUUsage
                0x0084cbf5                OSTaskCtr
                0x0084cbf8                OSMemFreeList
                0x0084cbfc                OSTCBHighRdy
                0x0084cc00                OSQFreeList
                0x0084cc04                OSRdyGrp
                0x0084cc05                OSRdyTbl
                0x0084cc08                OSEventFreeList
                0x0084cc0c                OSIntNesting
                0x0084cc10                OSTCBCur
                0x0084cc14                OSTime
                0x0084cc18                OSFlagFreeList
                0x0084cc1c                OSStatRdy
                0x0084cc20                OSIdleCtrRun
 .sbss          0x0084cc24        0xc ../SemaforoNet_bsp/\libucosii_bsp.a(ipnet.o)
                0x0084cc24                MaxLnh
                0x0084cc28                MaxMtu
                0x0084cc2c                NDEBUG
 .sbss          0x0084cc30        0x8 ../SemaforoNet_bsp/\libucosii_bsp.a(ipstart.o)
                0x0084cc30                ifNumber
 .sbss          0x0084cc38       0x10 ../SemaforoNet_bsp/\libucosii_bsp.a(igmp_cmn.o)
                0x0084cc38                igmp_timers_are_running
                0x0084cc3c                igmp_cticks
                0x0084cc40                igmp_all_hosts_group
                0x0084cc44                igmp_all_rtrs_group
 .sbss          0x0084cc48        0xe ../SemaforoNet_bsp/\libucosii_bsp.a(netmain.o)
                0x0084cc48                netmain_wakes
                0x0084cc4c                nettick_wakes
                0x0084cc50                iniche_net_ready
                0x0084cc54                to_netmain
                0x0084cc55                to_nettick
 *fill*         0x0084cc56        0x2 00
 .sbss          0x0084cc58        0x4 ../SemaforoNet_bsp/\libucosii_bsp.a(tk_crnos.o)
                0x0084cc58                tcp_sleep_timeout
 .sbss          0x0084cc5c       0x34 ../SemaforoNet_bsp/\libucosii_bsp.a(dhcpclnt.o)
                0x0084cc5c                dhc_conn
                0x0084cc60                dsc_errors
                0x0084cc64                dsc_discovers
                0x0084cc68                dsc_offers
                0x0084cc6c                dsc_requests
                0x0084cc70                dsc_acks
                0x0084cc74                dsc_bpreplys
                0x0084cc78                dsc_declines
                0x0084cc7c                dsc_releases
                0x0084cc80                dsc_naks
                0x0084cc84                dsc_renew
                0x0084cc88                dsc_rebind
                0x0084cc8c                dsc_rlyerrs
 .sbss          0x0084cc90        0x4 ../SemaforoNet_bsp/\libucosii_bsp.a(udp_open.o)
                0x0084cc90                firstudp
 .sbss          0x0084cc94       0x18 ../SemaforoNet_bsp/\libucosii_bsp.a(brdutils.o)
                0x0084cc98                cticks_initialized
                0x0084cc9c                irq_level
                0x0084cca4                cticks_factor
                0x0084cca8                OS_TPS
 .sbss          0x0084ccac       0x18 ../SemaforoNet_bsp/\libucosii_bsp.a(osportco.o)
                0x0084ccac                tcp_sleep_count
                0x0084ccb0                tcp_wakeup_count
                0x0084ccb4                netq_intmask
                0x0084ccb8                old_mode
                0x0084ccbc                global_TCPwakeup_setIndx
                0x0084ccc0                cticks
 .sbss          0x0084ccc4        0xc ../SemaforoNet_bsp/\libucosii_bsp.a(targnios.o)
                0x0084ccc4                memtrapsize
                0x0084ccc8                mheap_sem_ptr
                0x0084cccc                rcvdq_sem_ptr
 .sbss          0x0084ccd0       0x12 ../SemaforoNet_bsp/\libucosii_bsp.a(nptcp.o)
                0x0084ccd0                nextslow
                0x0084ccd8                mbstat
                0x0084cce0                select_wait
 *fill*         0x0084cce2        0x2 00
 .sbss          0x0084cce4        0x8 ../SemaforoNet_bsp/\libucosii_bsp.a(tcp_in.o)
                0x0084cce4                tcpprintfs
                0x0084cce8                dropline
 .sbss          0x0084ccec        0x4 ../SemaforoNet_bsp/\libucosii_bsp.a(tcp_out.o)
                0x0084ccec                tcp_optionbuf
 .sbss          0x0084ccf0        0x8 ../SemaforoNet_bsp/\libucosii_bsp.a(tcp_timr.o)
                0x0084ccf0                tcp_maxidle
                0x0084ccf4                tcp_iss
 .sbss          0x0084ccf8        0x4 ../SemaforoNet_bsp/\libucosii_bsp.a(alt_dev.o)
                0x0084ccf8                alt_fd_list_lock
 .sbss          0x0084ccfc        0x8 ../SemaforoNet_bsp/\libucosii_bsp.a(alt_tick.o)
                0x0084ccfc                _alt_tick_rate
                0x0084cd00                _alt_nticks
 .sbss          0x0084cd04        0x8 ../SemaforoNet_bsp/\libucosii_bsp.a(allports.o)
                0x0084cd04                activehost
 .sbss          0x0084cd0c        0xc ../SemaforoNet_bsp/\libucosii_bsp.a(timeouts.o)
                0x0084cd0c                nextppp
                0x0084cd10                port_1s_callout
 .sbss          0x0084cd18       0x1c ../SemaforoNet_bsp/\libucosii_bsp.a(et_arp.o)
                0x0084cd1c                arpcache
                0x0084cd20                arpReqsIn
                0x0084cd24                arpReqsOut
                0x0084cd28                arpRepsIn
                0x0084cd2c                arpRepsOut
 .sbss          0x0084cd34        0x4 ../SemaforoNet_bsp/\libucosii_bsp.a(ip.o)
                0x0084cd34                rt_mib
 .sbss          0x0084cd38        0xc ../SemaforoNet_bsp/\libucosii_bsp.a(ip_reasm.o)
                0x0084cd38                ipr_curr_mem
                0x0084cd3c                h_ireq
                0x0084cd40                ire_cticks
 .sbss          0x0084cd44       0x11 ../SemaforoNet_bsp/\libucosii_bsp.a(ipport.o)
                0x0084cd44                port_prep
                0x0084cd48                net_system_exit
                0x0084cd4c                so_evtmap_create
                0x0084cd50                so_evtmap_delete
                0x0084cd54                so_evtmap
 *fill*         0x0084cd55        0x3 00
 .sbss          0x0084cd58        0x4 ../SemaforoNet_bsp/\libucosii_bsp.a(ipraw.o)
                0x0084cd58                ipraw_eps
 .sbss          0x0084cd5c        0x4 ../SemaforoNet_bsp/\libucosii_bsp.a(iproute.o)
                0x0084cd5c                cachedRoute
 .sbss          0x0084cd60        0x2 ../SemaforoNet_bsp/\libucosii_bsp.a(udp.o)
 *fill*         0x0084cd62        0x2 00
 .sbss          0x0084cd64        0x8 ../SemaforoNet_bsp/\libucosii_bsp.a(in_pcb.o)
                0x0084cd64                inpcb_cachehits
                0x0084cd68                inpcb_cachemiss
 .sbss          0x0084cd6c       0x20 ../SemaforoNet_bsp/\libucosii_bsp.a(vfsfiles.o)
                0x0084cd6c                vfsystems
                0x0084cd70                vfiles
                0x0084cd74                vfsfiles
                0x0084cd78                vfopen_error
                0x0084cd7c                vfs_dir_stale
                0x0084cd80                vfs_open_files
                0x0084cd84                vfs_total_rw_space
                0x0084cd88                vfs_total_dyna_files
 .sbss          0x0084cd8c        0x4 ../SemaforoNet_bsp/\libucosii_bsp.a(icmp.o)
                0x0084cd8c                icmpdu_hook
 *(.sbss2 .sbss2.* .gnu.linkonce.sb2.*)
 *(.scommon)
                0x0084cd90                PROVIDE (__sbss_end, ABSOLUTE (.))
                0x0084cd90                PROVIDE (___sbss_end, ABSOLUTE (.))
 *(.dynbss)
 *(.bss .bss.* .gnu.linkonce.b.*)
 .bss           0x0084cd90        0x0 ../SemaforoNet_bsp//obj/HAL/src/crt0.o
 .bss           0x0084cd90        0x0 obj/default/alt_error_handler.o
 .bss           0x0084cd90        0x0 obj/default/dm9000a.o
 .bss           0x0084cd90        0x0 obj/default/led.o
 .bss           0x0084cd90        0x0 obj/default/main.o
 .bss           0x0084cd90        0x0 obj/default/network_utilities.o
 .bss           0x0084cd90      0x5f0 obj/default/simple_socket_server.o
 .bss           0x0084d380        0x0 obj/default/tse_my_system.o
 .bss           0x0084d380        0x0 c:/altera/13.0sp1/nios2eds/bin/gnu/h-i686-mingw32/bin/../lib/gcc/nios2-elf/4.1.2\libgcc.a(_fixunsdfsi.o)
 .bss           0x0084d380        0x0 c:/altera/13.0sp1/nios2eds/bin/gnu/h-i686-mingw32/bin/../lib/gcc/nios2-elf/4.1.2\libgcc.a(_addsub_df.o)
 .bss           0x0084d380        0x0 c:/altera/13.0sp1/nios2eds/bin/gnu/h-i686-mingw32/bin/../lib/gcc/nios2-elf/4.1.2\libgcc.a(_mul_df.o)
 .bss           0x0084d380        0x0 c:/altera/13.0sp1/nios2eds/bin/gnu/h-i686-mingw32/bin/../lib/gcc/nios2-elf/4.1.2\libgcc.a(_ge_df.o)
 .bss           0x0084d380        0x0 c:/altera/13.0sp1/nios2eds/bin/gnu/h-i686-mingw32/bin/../lib/gcc/nios2-elf/4.1.2\libgcc.a(_df_to_si.o)
 .bss           0x0084d380        0x0 c:/altera/13.0sp1/nios2eds/bin/gnu/h-i686-mingw32/bin/../lib/gcc/nios2-elf/4.1.2\libgcc.a(_thenan_df.o)
 .bss           0x0084d380        0x0 c:/altera/13.0sp1/nios2eds/bin/gnu/h-i686-mingw32/bin/../lib/gcc/nios2-elf/4.1.2\libgcc.a(_usi_to_df.o)
 .bss           0x0084d380        0x0 c:/altera/13.0sp1/nios2eds/bin/gnu/h-i686-mingw32/bin/../lib/gcc/nios2-elf/4.1.2\libgcc.a(_muldi3.o)
 .bss           0x0084d380        0x0 c:/altera/13.0sp1/nios2eds/bin/gnu/h-i686-mingw32/bin/../lib/gcc/nios2-elf/4.1.2\libgcc.a(_clzsi2.o)
 .bss           0x0084d380        0x0 c:/altera/13.0sp1/nios2eds/bin/gnu/h-i686-mingw32/bin/../lib/gcc/nios2-elf/4.1.2\libgcc.a(_pack_df.o)
 .bss           0x0084d380        0x0 c:/altera/13.0sp1/nios2eds/bin/gnu/h-i686-mingw32/bin/../lib/gcc/nios2-elf/4.1.2\libgcc.a(_unpack_df.o)
 .bss           0x0084d380        0x0 c:/altera/13.0sp1/nios2eds/bin/gnu/h-i686-mingw32/bin/../lib/gcc/nios2-elf/4.1.2\libgcc.a(_fpcmp_parts_df.o)
 .bss           0x0084d380        0x0 c:/altera/13.0sp1/nios2eds/bin/gnu/h-i686-mingw32/bin/../lib/gcc/nios2-elf/4.1.2\libgcc.a(_clz.o)
 .bss           0x0084d380        0x0 c:/altera/13.0sp1/nios2eds/bin/gnu/h-i686-mingw32/bin/../lib/gcc/nios2-elf/4.1.2/../../../../nios2-elf/lib\libc.a(lib_a-ctype_.o)
 .bss           0x0084d380        0x0 c:/altera/13.0sp1/nios2eds/bin/gnu/h-i686-mingw32/bin/../lib/gcc/nios2-elf/4.1.2/../../../../nios2-elf/lib\libc.a(lib_a-exit.o)
 .bss           0x0084d380        0x0 c:/altera/13.0sp1/nios2eds/bin/gnu/h-i686-mingw32/bin/../lib/gcc/nios2-elf/4.1.2/../../../../nios2-elf/lib\libc.a(lib_a-fprintf.o)
 .bss           0x0084d380        0x0 c:/altera/13.0sp1/nios2eds/bin/gnu/h-i686-mingw32/bin/../lib/gcc/nios2-elf/4.1.2/../../../../nios2-elf/lib\libc.a(lib_a-fwrite.o)
 .bss           0x0084d380        0x0 c:/altera/13.0sp1/nios2eds/bin/gnu/h-i686-mingw32/bin/../lib/gcc/nios2-elf/4.1.2/../../../../nios2-elf/lib\libc.a(lib_a-getc.o)
 .bss           0x0084d380        0x0 c:/altera/13.0sp1/nios2eds/bin/gnu/h-i686-mingw32/bin/../lib/gcc/nios2-elf/4.1.2/../../../../nios2-elf/lib\libc.a(lib_a-impure.o)
 .bss           0x0084d380        0x0 c:/altera/13.0sp1/nios2eds/bin/gnu/h-i686-mingw32/bin/../lib/gcc/nios2-elf/4.1.2/../../../../nios2-elf/lib\libc.a(lib_a-malloc.o)
 .bss           0x0084d380       0x28 c:/altera/13.0sp1/nios2eds/bin/gnu/h-i686-mingw32/bin/../lib/gcc/nios2-elf/4.1.2/../../../../nios2-elf/lib\libc.a(lib_a-mallocr.o)
                0x0084d380                __malloc_current_mallinfo
 .bss           0x0084d3a8        0x0 c:/altera/13.0sp1/nios2eds/bin/gnu/h-i686-mingw32/bin/../lib/gcc/nios2-elf/4.1.2/../../../../nios2-elf/lib\libc.a(lib_a-memcpy.o)
 .bss           0x0084d3a8        0x0 c:/altera/13.0sp1/nios2eds/bin/gnu/h-i686-mingw32/bin/../lib/gcc/nios2-elf/4.1.2/../../../../nios2-elf/lib\libc.a(lib_a-memmove.o)
 .bss           0x0084d3a8        0x0 c:/altera/13.0sp1/nios2eds/bin/gnu/h-i686-mingw32/bin/../lib/gcc/nios2-elf/4.1.2/../../../../nios2-elf/lib\libc.a(lib_a-memset.o)
 .bss           0x0084d3a8        0x0 c:/altera/13.0sp1/nios2eds/bin/gnu/h-i686-mingw32/bin/../lib/gcc/nios2-elf/4.1.2/../../../../nios2-elf/lib\libc.a(lib_a-perror.o)
 .bss           0x0084d3a8        0x0 c:/altera/13.0sp1/nios2eds/bin/gnu/h-i686-mingw32/bin/../lib/gcc/nios2-elf/4.1.2/../../../../nios2-elf/lib\libc.a(lib_a-printf.o)
 .bss           0x0084d3a8        0x0 c:/altera/13.0sp1/nios2eds/bin/gnu/h-i686-mingw32/bin/../lib/gcc/nios2-elf/4.1.2/../../../../nios2-elf/lib\libc.a(lib_a-putc.o)
 .bss           0x0084d3a8        0x0 c:/altera/13.0sp1/nios2eds/bin/gnu/h-i686-mingw32/bin/../lib/gcc/nios2-elf/4.1.2/../../../../nios2-elf/lib\libc.a(lib_a-putchar.o)
 .bss           0x0084d3a8        0x0 c:/altera/13.0sp1/nios2eds/bin/gnu/h-i686-mingw32/bin/../lib/gcc/nios2-elf/4.1.2/../../../../nios2-elf/lib\libc.a(lib_a-puts.o)
 .bss           0x0084d3a8        0x0 c:/altera/13.0sp1/nios2eds/bin/gnu/h-i686-mingw32/bin/../lib/gcc/nios2-elf/4.1.2/../../../../nios2-elf/lib\libc.a(lib_a-rget.o)
 .bss           0x0084d3a8        0x0 c:/altera/13.0sp1/nios2eds/bin/gnu/h-i686-mingw32/bin/../lib/gcc/nios2-elf/4.1.2/../../../../nios2-elf/lib\libc.a(lib_a-sbrkr.o)
 .bss           0x0084d3a8        0x0 c:/altera/13.0sp1/nios2eds/bin/gnu/h-i686-mingw32/bin/../lib/gcc/nios2-elf/4.1.2/../../../../nios2-elf/lib\libc.a(lib_a-sprintf.o)
 .bss           0x0084d3a8        0x0 c:/altera/13.0sp1/nios2eds/bin/gnu/h-i686-mingw32/bin/../lib/gcc/nios2-elf/4.1.2/../../../../nios2-elf/lib\libc.a(lib_a-strchr.o)
 .bss           0x0084d3a8        0x0 c:/altera/13.0sp1/nios2eds/bin/gnu/h-i686-mingw32/bin/../lib/gcc/nios2-elf/4.1.2/../../../../nios2-elf/lib\libc.a(lib_a-strcmp.o)
 .bss           0x0084d3a8        0x0 c:/altera/13.0sp1/nios2eds/bin/gnu/h-i686-mingw32/bin/../lib/gcc/nios2-elf/4.1.2/../../../../nios2-elf/lib\libc.a(lib_a-strerror.o)
 .bss           0x0084d3a8        0x0 c:/altera/13.0sp1/nios2eds/bin/gnu/h-i686-mingw32/bin/../lib/gcc/nios2-elf/4.1.2/../../../../nios2-elf/lib\libc.a(lib_a-strlen.o)
 .bss           0x0084d3a8        0x0 c:/altera/13.0sp1/nios2eds/bin/gnu/h-i686-mingw32/bin/../lib/gcc/nios2-elf/4.1.2/../../../../nios2-elf/lib\libc.a(lib_a-strncpy.o)
 .bss           0x0084d3a8        0x0 c:/altera/13.0sp1/nios2eds/bin/gnu/h-i686-mingw32/bin/../lib/gcc/nios2-elf/4.1.2/../../../../nios2-elf/lib\libc.a(lib_a-strtol.o)
 .bss           0x0084d3a8        0x0 c:/altera/13.0sp1/nios2eds/bin/gnu/h-i686-mingw32/bin/../lib/gcc/nios2-elf/4.1.2/../../../../nios2-elf/lib\libc.a(lib_a-u_strerr.o)
 .bss           0x0084d3a8        0x0 c:/altera/13.0sp1/nios2eds/bin/gnu/h-i686-mingw32/bin/../lib/gcc/nios2-elf/4.1.2/../../../../nios2-elf/lib\libc.a(lib_a-vfprintf.o)
 .bss           0x0084d3a8        0x0 c:/altera/13.0sp1/nios2eds/bin/gnu/h-i686-mingw32/bin/../lib/gcc/nios2-elf/4.1.2/../../../../nios2-elf/lib\libc.a(lib_a-wbuf.o)
 .bss           0x0084d3a8        0x0 c:/altera/13.0sp1/nios2eds/bin/gnu/h-i686-mingw32/bin/../lib/gcc/nios2-elf/4.1.2/../../../../nios2-elf/lib\libc.a(lib_a-wsetup.o)
 .bss           0x0084d3a8        0x0 c:/altera/13.0sp1/nios2eds/bin/gnu/h-i686-mingw32/bin/../lib/gcc/nios2-elf/4.1.2/../../../../nios2-elf/lib\libc.a(lib_a-__call_atexit.o)
 .bss           0x0084d3a8        0x0 c:/altera/13.0sp1/nios2eds/bin/gnu/h-i686-mingw32/bin/../lib/gcc/nios2-elf/4.1.2/../../../../nios2-elf/lib\libc.a(lib_a-dtoa.o)
 .bss           0x0084d3a8        0x0 c:/altera/13.0sp1/nios2eds/bin/gnu/h-i686-mingw32/bin/../lib/gcc/nios2-elf/4.1.2/../../../../nios2-elf/lib\libc.a(lib_a-fflush.o)
 .bss           0x0084d3a8        0x0 c:/altera/13.0sp1/nios2eds/bin/gnu/h-i686-mingw32/bin/../lib/gcc/nios2-elf/4.1.2/../../../../nios2-elf/lib\libc.a(lib_a-findfp.o)
 .bss           0x0084d3a8        0x0 c:/altera/13.0sp1/nios2eds/bin/gnu/h-i686-mingw32/bin/../lib/gcc/nios2-elf/4.1.2/../../../../nios2-elf/lib\libc.a(lib_a-fputc.o)
 .bss           0x0084d3a8        0x0 c:/altera/13.0sp1/nios2eds/bin/gnu/h-i686-mingw32/bin/../lib/gcc/nios2-elf/4.1.2/../../../../nios2-elf/lib\libc.a(lib_a-fputs.o)
 .bss           0x0084d3a8        0x0 c:/altera/13.0sp1/nios2eds/bin/gnu/h-i686-mingw32/bin/../lib/gcc/nios2-elf/4.1.2/../../../../nios2-elf/lib\libc.a(lib_a-freer.o)
 .bss           0x0084d3a8        0x0 c:/altera/13.0sp1/nios2eds/bin/gnu/h-i686-mingw32/bin/../lib/gcc/nios2-elf/4.1.2/../../../../nios2-elf/lib\libc.a(lib_a-fvwrite.o)
 .bss           0x0084d3a8        0x0 c:/altera/13.0sp1/nios2eds/bin/gnu/h-i686-mingw32/bin/../lib/gcc/nios2-elf/4.1.2/../../../../nios2-elf/lib\libc.a(lib_a-fwalk.o)
 .bss           0x0084d3a8        0x0 c:/altera/13.0sp1/nios2eds/bin/gnu/h-i686-mingw32/bin/../lib/gcc/nios2-elf/4.1.2/../../../../nios2-elf/lib\libc.a(lib_a-int_errno.o)
 .bss           0x0084d3a8        0x0 c:/altera/13.0sp1/nios2eds/bin/gnu/h-i686-mingw32/bin/../lib/gcc/nios2-elf/4.1.2/../../../../nios2-elf/lib\libc.a(lib_a-locale.o)
 .bss           0x0084d3a8        0x0 c:/altera/13.0sp1/nios2eds/bin/gnu/h-i686-mingw32/bin/../lib/gcc/nios2-elf/4.1.2/../../../../nios2-elf/lib\libc.a(lib_a-makebuf.o)
 .bss           0x0084d3a8        0x0 c:/altera/13.0sp1/nios2eds/bin/gnu/h-i686-mingw32/bin/../lib/gcc/nios2-elf/4.1.2/../../../../nios2-elf/lib\libc.a(lib_a-memchr.o)
 .bss           0x0084d3a8        0x0 c:/altera/13.0sp1/nios2eds/bin/gnu/h-i686-mingw32/bin/../lib/gcc/nios2-elf/4.1.2/../../../../nios2-elf/lib\libc.a(lib_a-mprec.o)
 .bss           0x0084d3a8        0x0 c:/altera/13.0sp1/nios2eds/bin/gnu/h-i686-mingw32/bin/../lib/gcc/nios2-elf/4.1.2/../../../../nios2-elf/lib\libc.a(lib_a-reallocr.o)
 .bss           0x0084d3a8        0x0 c:/altera/13.0sp1/nios2eds/bin/gnu/h-i686-mingw32/bin/../lib/gcc/nios2-elf/4.1.2/../../../../nios2-elf/lib\libc.a(lib_a-refill.o)
 .bss           0x0084d3a8        0x0 c:/altera/13.0sp1/nios2eds/bin/gnu/h-i686-mingw32/bin/../lib/gcc/nios2-elf/4.1.2/../../../../nios2-elf/lib\libc.a(lib_a-s_isinfd.o)
 .bss           0x0084d3a8        0x0 c:/altera/13.0sp1/nios2eds/bin/gnu/h-i686-mingw32/bin/../lib/gcc/nios2-elf/4.1.2/../../../../nios2-elf/lib\libc.a(lib_a-s_isnand.o)
 .bss           0x0084d3a8        0x0 c:/altera/13.0sp1/nios2eds/bin/gnu/h-i686-mingw32/bin/../lib/gcc/nios2-elf/4.1.2/../../../../nios2-elf/lib\libc.a(lib_a-stdio.o)
 .bss           0x0084d3a8        0x0 c:/altera/13.0sp1/nios2eds/bin/gnu/h-i686-mingw32/bin/../lib/gcc/nios2-elf/4.1.2/../../../../nios2-elf/lib\libc.a(lib_a-writer.o)
 .bss           0x0084d3a8        0x0 c:/altera/13.0sp1/nios2eds/bin/gnu/h-i686-mingw32/bin/../lib/gcc/nios2-elf/4.1.2/../../../../nios2-elf/lib\libc.a(lib_a-callocr.o)
 .bss           0x0084d3a8        0x0 c:/altera/13.0sp1/nios2eds/bin/gnu/h-i686-mingw32/bin/../lib/gcc/nios2-elf/4.1.2/../../../../nios2-elf/lib\libc.a(lib_a-closer.o)
 .bss           0x0084d3a8        0x0 c:/altera/13.0sp1/nios2eds/bin/gnu/h-i686-mingw32/bin/../lib/gcc/nios2-elf/4.1.2/../../../../nios2-elf/lib\libc.a(lib_a-fclose.o)
 .bss           0x0084d3a8        0x0 c:/altera/13.0sp1/nios2eds/bin/gnu/h-i686-mingw32/bin/../lib/gcc/nios2-elf/4.1.2/../../../../nios2-elf/lib\libc.a(lib_a-fstatr.o)
 .bss           0x0084d3a8        0x0 c:/altera/13.0sp1/nios2eds/bin/gnu/h-i686-mingw32/bin/../lib/gcc/nios2-elf/4.1.2/../../../../nios2-elf/lib\libc.a(lib_a-isattyr.o)
 .bss           0x0084d3a8        0x0 c:/altera/13.0sp1/nios2eds/bin/gnu/h-i686-mingw32/bin/../lib/gcc/nios2-elf/4.1.2/../../../../nios2-elf/lib\libc.a(lib_a-lseekr.o)
 .bss           0x0084d3a8        0x0 c:/altera/13.0sp1/nios2eds/bin/gnu/h-i686-mingw32/bin/../lib/gcc/nios2-elf/4.1.2/../../../../nios2-elf/lib\libc.a(lib_a-readr.o)
 .bss           0x0084d3a8        0x0 c:/altera/13.0sp1/nios2eds/bin/gnu/h-i686-mingw32/bin/../lib/gcc/nios2-elf/4.1.2\libgcc.a(_udivdi3.o)
 .bss           0x0084d3a8        0x0 c:/altera/13.0sp1/nios2eds/bin/gnu/h-i686-mingw32/bin/../lib/gcc/nios2-elf/4.1.2\libgcc.a(_umoddi3.o)
 .bss           0x0084d3a8        0x0 c:/altera/13.0sp1/nios2eds/bin/gnu/h-i686-mingw32/bin/../lib/gcc/nios2-elf/4.1.2\libgcc.a(_div_df.o)
 .bss           0x0084d3a8        0x0 c:/altera/13.0sp1/nios2eds/bin/gnu/h-i686-mingw32/bin/../lib/gcc/nios2-elf/4.1.2\libgcc.a(_eq_df.o)
 .bss           0x0084d3a8        0x0 c:/altera/13.0sp1/nios2eds/bin/gnu/h-i686-mingw32/bin/../lib/gcc/nios2-elf/4.1.2\libgcc.a(_ne_df.o)
 .bss           0x0084d3a8        0x0 c:/altera/13.0sp1/nios2eds/bin/gnu/h-i686-mingw32/bin/../lib/gcc/nios2-elf/4.1.2\libgcc.a(_gt_df.o)
 .bss           0x0084d3a8        0x0 c:/altera/13.0sp1/nios2eds/bin/gnu/h-i686-mingw32/bin/../lib/gcc/nios2-elf/4.1.2\libgcc.a(_lt_df.o)
 .bss           0x0084d3a8        0x0 c:/altera/13.0sp1/nios2eds/bin/gnu/h-i686-mingw32/bin/../lib/gcc/nios2-elf/4.1.2\libgcc.a(_si_to_df.o)
 .bss           0x0084d3a8        0x0 c:/altera/13.0sp1/nios2eds/bin/gnu/h-i686-mingw32/bin/../lib/gcc/nios2-elf/4.1.2\libgcc.a(lib2-divmod.o)
 .bss           0x0084d3a8        0x0 ../SemaforoNet_bsp/\libucosii_bsp.a(alt_exit.o)
 .bss           0x0084d3a8        0x0 ../SemaforoNet_bsp/\libucosii_bsp.a(alt_flash_dev.o)
 .bss           0x0084d3a8        0x0 ../SemaforoNet_bsp/\libucosii_bsp.a(alt_fstat.o)
 .bss           0x0084d3a8        0x0 ../SemaforoNet_bsp/\libucosii_bsp.a(alt_irq_register.o)
 .bss           0x0084d3a8        0x0 ../SemaforoNet_bsp/\libucosii_bsp.a(alt_irq_vars.o)
 .bss           0x0084d3a8        0x0 ../SemaforoNet_bsp/\libucosii_bsp.a(alt_isatty.o)
 .bss           0x0084d3a8        0x0 ../SemaforoNet_bsp/\libucosii_bsp.a(alt_lseek.o)
 .bss           0x0084d3a8        0x0 ../SemaforoNet_bsp/\libucosii_bsp.a(alt_main.o)
 .bss           0x0084d3a8        0x0 ../SemaforoNet_bsp/\libucosii_bsp.a(alt_sbrk.o)
 .bss           0x0084d3a8        0x0 ../SemaforoNet_bsp/\libucosii_bsp.a(alt_usleep.o)
 .bss           0x0084d3a8        0x0 ../SemaforoNet_bsp/\libucosii_bsp.a(alt_env_lock.o)
 .bss           0x0084d3a8        0x0 ../SemaforoNet_bsp/\libucosii_bsp.a(alt_malloc_lock.o)
 .bss           0x0084d3a8        0x0 ../SemaforoNet_bsp/\libucosii_bsp.a(os_core.o)
 .bss           0x0084d3a8        0x0 ../SemaforoNet_bsp/\libucosii_bsp.a(os_dbg.o)
 .bss           0x0084d3a8        0x0 ../SemaforoNet_bsp/\libucosii_bsp.a(os_flag.o)
 .bss           0x0084d3a8        0x0 ../SemaforoNet_bsp/\libucosii_bsp.a(os_mem.o)
 .bss           0x0084d3a8        0x0 ../SemaforoNet_bsp/\libucosii_bsp.a(os_q.o)
 .bss           0x0084d3a8        0x0 ../SemaforoNet_bsp/\libucosii_bsp.a(os_sem.o)
 .bss           0x0084d3a8        0x0 ../SemaforoNet_bsp/\libucosii_bsp.a(os_task.o)
 .bss           0x0084d3a8        0x0 ../SemaforoNet_bsp/\libucosii_bsp.a(os_time.o)
 .bss           0x0084d3a8        0x0 ../SemaforoNet_bsp/\libucosii_bsp.a(alt_sys_init.o)
 .bss           0x0084d3a8        0x0 ../SemaforoNet_bsp/\libucosii_bsp.a(altera_avalon_cfi_flash.o)
 .bss           0x0084d3a8        0x0 ../SemaforoNet_bsp/\libucosii_bsp.a(altera_avalon_cfi_flash_table.o)
 .bss           0x0084d3a8        0x0 ../SemaforoNet_bsp/\libucosii_bsp.a(altera_avalon_epcs_flash_controller.o)
 .bss           0x0084d3a8        0x0 ../SemaforoNet_bsp/\libucosii_bsp.a(altera_avalon_jtag_uart_fd.o)
 .bss           0x0084d3a8        0x0 ../SemaforoNet_bsp/\libucosii_bsp.a(altera_avalon_jtag_uart_init.o)
 .bss           0x0084d3a8        0x0 ../SemaforoNet_bsp/\libucosii_bsp.a(altera_avalon_jtag_uart_ioctl.o)
 .bss           0x0084d3a8        0x0 ../SemaforoNet_bsp/\libucosii_bsp.a(altera_avalon_jtag_uart_read.o)
 .bss           0x0084d3a8        0x0 ../SemaforoNet_bsp/\libucosii_bsp.a(altera_avalon_jtag_uart_write.o)
 .bss           0x0084d3a8        0x0 ../SemaforoNet_bsp/\libucosii_bsp.a(altera_avalon_lcd_16207.o)
 .bss           0x0084d3a8        0x0 ../SemaforoNet_bsp/\libucosii_bsp.a(altera_avalon_lcd_16207_fd.o)
 .bss           0x0084d3a8        0x0 ../SemaforoNet_bsp/\libucosii_bsp.a(altera_avalon_timer_sc.o)
 .bss           0x0084d3a8        0x0 ../SemaforoNet_bsp/\libucosii_bsp.a(altera_avalon_uart_fd.o)
 .bss           0x0084d3a8        0x0 ../SemaforoNet_bsp/\libucosii_bsp.a(altera_avalon_uart_init.o)
 .bss           0x0084d3a8        0x0 ../SemaforoNet_bsp/\libucosii_bsp.a(altera_avalon_uart_read.o)
 .bss           0x0084d3a8        0x0 ../SemaforoNet_bsp/\libucosii_bsp.a(altera_avalon_uart_write.o)
 .bss           0x0084d3a8        0x0 ../SemaforoNet_bsp/\libucosii_bsp.a(epcs_commands.o)
 .bss           0x0084d3a8        0x0 ../SemaforoNet_bsp/\libucosii_bsp.a(alt_iniche_close.o)
 .bss           0x0084d3a8        0x0 ../SemaforoNet_bsp/\libucosii_bsp.a(alt_iniche_dev.o)
 .bss           0x0084d3a8        0x0 ../SemaforoNet_bsp/\libucosii_bsp.a(alt_iniche_read.o)
 .bss           0x0084d3a8        0x0 ../SemaforoNet_bsp/\libucosii_bsp.a(alt_iniche_write.o)
 .bss           0x0084d3a8        0x0 ../SemaforoNet_bsp/\libucosii_bsp.a(ipnet.o)
 .bss           0x0084d3a8       0x3c ../SemaforoNet_bsp/\libucosii_bsp.a(ipstart.o)
 .bss           0x0084d3e4        0x0 ../SemaforoNet_bsp/\libucosii_bsp.a(igmp_cmn.o)
 .bss           0x0084d3e4        0x0 ../SemaforoNet_bsp/\libucosii_bsp.a(bsdsock.o)
 .bss           0x0084d3e4        0x0 ../SemaforoNet_bsp/\libucosii_bsp.a(cksum.o)
 .bss           0x0084d3e4       0x18 ../SemaforoNet_bsp/\libucosii_bsp.a(in_utils.o)
 .bss           0x0084d3fc        0x0 ../SemaforoNet_bsp/\libucosii_bsp.a(netmain.o)
 .bss           0x0084d3fc       0x1e ../SemaforoNet_bsp/\libucosii_bsp.a(parseip.o)
 .bss           0x0084d41a        0x0 ../SemaforoNet_bsp/\libucosii_bsp.a(tk_crnos.o)
 .bss           0x0084d41a        0x0 ../SemaforoNet_bsp/\libucosii_bsp.a(dhcpclnt.o)
 .bss           0x0084d41a        0x0 ../SemaforoNet_bsp/\libucosii_bsp.a(dhcputil.o)
 .bss           0x0084d41a        0x0 ../SemaforoNet_bsp/\libucosii_bsp.a(pktalloc.o)
 .bss           0x0084d41a        0x0 ../SemaforoNet_bsp/\libucosii_bsp.a(q.o)
 .bss           0x0084d41a        0x0 ../SemaforoNet_bsp/\libucosii_bsp.a(udp_open.o)
 .bss           0x0084d41a        0x0 ../SemaforoNet_bsp/\libucosii_bsp.a(asm_cksum.o)
 .bss           0x0084d41a        0x0 ../SemaforoNet_bsp/\libucosii_bsp.a(brdutils.o)
 .bss           0x0084d41a        0x0 ../SemaforoNet_bsp/\libucosii_bsp.a(osportco.o)
 .bss           0x0084d41a        0x0 ../SemaforoNet_bsp/\libucosii_bsp.a(targnios.o)
 .bss           0x0084d41a        0x0 ../SemaforoNet_bsp/\libucosii_bsp.a(nptcp.o)
 .bss           0x0084d41a        0x0 ../SemaforoNet_bsp/\libucosii_bsp.a(rawsock.o)
 .bss           0x0084d41a        0x0 ../SemaforoNet_bsp/\libucosii_bsp.a(sockcall.o)
 .bss           0x0084d41a        0x0 ../SemaforoNet_bsp/\libucosii_bsp.a(socket.o)
 .bss           0x0084d41a        0x0 ../SemaforoNet_bsp/\libucosii_bsp.a(socket2.o)
 .bss           0x0084d41a        0x0 ../SemaforoNet_bsp/\libucosii_bsp.a(soselect.o)
 .bss           0x0084d41a        0x0 ../SemaforoNet_bsp/\libucosii_bsp.a(tcp_in.o)
 .bss           0x0084d41a        0x0 ../SemaforoNet_bsp/\libucosii_bsp.a(tcp_out.o)
 .bss           0x0084d41a        0x0 ../SemaforoNet_bsp/\libucosii_bsp.a(tcp_subr.o)
 .bss           0x0084d41a        0x0 ../SemaforoNet_bsp/\libucosii_bsp.a(tcp_timr.o)
 .bss           0x0084d41a        0x0 ../SemaforoNet_bsp/\libucosii_bsp.a(tcp_usr.o)
 .bss           0x0084d41a        0x0 ../SemaforoNet_bsp/\libucosii_bsp.a(tcpport.o)
 .bss           0x0084d41a        0x0 ../SemaforoNet_bsp/\libucosii_bsp.a(udpsock.o)
 .bss           0x0084d41a        0x0 ../SemaforoNet_bsp/\libucosii_bsp.a(alt_alarm_start.o)
 .bss           0x0084d41a        0x0 ../SemaforoNet_bsp/\libucosii_bsp.a(alt_busy_sleep.o)
 .bss           0x0084d41a        0x0 ../SemaforoNet_bsp/\libucosii_bsp.a(alt_close.o)
 .bss           0x0084d41a        0x0 ../SemaforoNet_bsp/\libucosii_bsp.a(alt_dcache_flush.o)
 .bss           0x0084d41a        0x0 ../SemaforoNet_bsp/\libucosii_bsp.a(alt_dev.o)
 .bss           0x0084d41a        0x0 ../SemaforoNet_bsp/\libucosii_bsp.a(alt_dev_llist_insert.o)
 .bss           0x0084d41a        0x0 ../SemaforoNet_bsp/\libucosii_bsp.a(alt_do_ctors.o)
 .bss           0x0084d41a        0x0 ../SemaforoNet_bsp/\libucosii_bsp.a(alt_do_dtors.o)
 .bss           0x0084d41a        0x0 ../SemaforoNet_bsp/\libucosii_bsp.a(alt_errno.o)
 .bss           0x0084d41a        0x0 ../SemaforoNet_bsp/\libucosii_bsp.a(alt_find_dev.o)
 .bss           0x0084d41a        0x0 ../SemaforoNet_bsp/\libucosii_bsp.a(alt_iic.o)
 .bss           0x0084d41a        0x0 ../SemaforoNet_bsp/\libucosii_bsp.a(alt_iic_isr_register.o)
 .bss           0x0084d41a        0x0 ../SemaforoNet_bsp/\libucosii_bsp.a(alt_io_redirect.o)
 .bss           0x0084d41a        0x0 ../SemaforoNet_bsp/\libucosii_bsp.a(alt_irq_entry.o)
 .bss           0x0084d41a        0x0 ../SemaforoNet_bsp/\libucosii_bsp.a(alt_irq_handler.o)
 .bss           0x0084d41a        0x0 ../SemaforoNet_bsp/\libucosii_bsp.a(alt_open.o)
 .bss           0x0084d41a        0x0 ../SemaforoNet_bsp/\libucosii_bsp.a(alt_read.o)
 .bss           0x0084d41a        0x0 ../SemaforoNet_bsp/\libucosii_bsp.a(alt_release_fd.o)
 .bss           0x0084d41a        0x0 ../SemaforoNet_bsp/\libucosii_bsp.a(alt_remap_cached.o)
 .bss           0x0084d41a        0x0 ../SemaforoNet_bsp/\libucosii_bsp.a(alt_remap_uncached.o)
 .bss           0x0084d41a        0x0 ../SemaforoNet_bsp/\libucosii_bsp.a(alt_tick.o)
 .bss           0x0084d41a        0x0 ../SemaforoNet_bsp/\libucosii_bsp.a(alt_write.o)
 .bss           0x0084d41a        0x0 ../SemaforoNet_bsp/\libucosii_bsp.a(altera_nios2_qsys_irq.o)
 .bss           0x0084d41a        0x0 ../SemaforoNet_bsp/\libucosii_bsp.a(os_cpu_a.o)
 .bss           0x0084d41a        0x0 ../SemaforoNet_bsp/\libucosii_bsp.a(os_cpu_c.o)
 .bss           0x0084d41a        0x0 ../SemaforoNet_bsp/\libucosii_bsp.a(altera_avalon_cfi_flash_amd.o)
 .bss           0x0084d41a        0x0 ../SemaforoNet_bsp/\libucosii_bsp.a(altera_avalon_cfi_flash_intel.o)
 .bss           0x0084d41a        0x0 ../SemaforoNet_bsp/\libucosii_bsp.a(altera_avalon_spi.o)
 .bss           0x0084d41a        0x0 ../SemaforoNet_bsp/\libucosii_bsp.a(allports.o)
 .bss           0x0084d41a        0x0 ../SemaforoNet_bsp/\libucosii_bsp.a(timeouts.o)
 .bss           0x0084d41a        0x0 ../SemaforoNet_bsp/\libucosii_bsp.a(tk_misc.o)
 .bss           0x0084d41a        0x0 ../SemaforoNet_bsp/\libucosii_bsp.a(alt_iniche_fcntl.o)
 .bss           0x0084d41a        0x0 ../SemaforoNet_bsp/\libucosii_bsp.a(et_arp.o)
 .bss           0x0084d41a        0x0 ../SemaforoNet_bsp/\libucosii_bsp.a(iface.o)
 .bss           0x0084d41a        0x0 ../SemaforoNet_bsp/\libucosii_bsp.a(ip.o)
 .bss           0x0084d41a        0x0 ../SemaforoNet_bsp/\libucosii_bsp.a(ip_reasm.o)
 .bss           0x0084d41a        0x0 ../SemaforoNet_bsp/\libucosii_bsp.a(ipdemux.o)
 .bss           0x0084d41a        0x0 ../SemaforoNet_bsp/\libucosii_bsp.a(ipmc.o)
 .bss           0x0084d41a        0x0 ../SemaforoNet_bsp/\libucosii_bsp.a(ipport.o)
 .bss           0x0084d41a        0x0 ../SemaforoNet_bsp/\libucosii_bsp.a(ipraw.o)
 .bss           0x0084d41a        0x0 ../SemaforoNet_bsp/\libucosii_bsp.a(iproute.o)
 .bss           0x0084d41a        0x0 ../SemaforoNet_bsp/\libucosii_bsp.a(udp.o)
 .bss           0x0084d41a        0x0 ../SemaforoNet_bsp/\libucosii_bsp.a(igmp.o)
 .bss           0x0084d41a        0x0 ../SemaforoNet_bsp/\libucosii_bsp.a(igmp2.o)
 .bss           0x0084d41a        0x0 ../SemaforoNet_bsp/\libucosii_bsp.a(ipopt.o)
 .bss           0x0084d41a        0x0 ../SemaforoNet_bsp/\libucosii_bsp.a(u_mctest.o)
 .bss           0x0084d41a        0x0 ../SemaforoNet_bsp/\libucosii_bsp.a(dhcsetup.o)
 .bss           0x0084d41a        0x0 ../SemaforoNet_bsp/\libucosii_bsp.a(memdev.o)
 .bss           0x0084d41a        0x0 ../SemaforoNet_bsp/\libucosii_bsp.a(tcpcksum.o)
 .bss           0x0084d41a        0x0 ../SemaforoNet_bsp/\libucosii_bsp.a(in_pcb.o)
 .bss           0x0084d41a        0x0 ../SemaforoNet_bsp/\libucosii_bsp.a(vfsfiles.o)
 .bss           0x0084d41a        0x0 ../SemaforoNet_bsp/\libucosii_bsp.a(vfsport.o)
 .bss           0x0084d41a        0x0 ../SemaforoNet_bsp/\libucosii_bsp.a(alt_exception_entry.o)
 .bss           0x0084d41a        0x0 ../SemaforoNet_bsp/\libucosii_bsp.a(alt_fcntl.o)
 .bss           0x0084d41a        0x0 ../SemaforoNet_bsp/\libucosii_bsp.a(alt_find_file.o)
 .bss           0x0084d41a        0x0 ../SemaforoNet_bsp/\libucosii_bsp.a(alt_get_fd.o)
 .bss           0x0084d41a        0x0 ../SemaforoNet_bsp/\libucosii_bsp.a(icmp.o)
 .bss           0x0084d41a        0x0 c:/altera/13.0sp1/nios2eds/bin/gnu/h-i686-mingw32/bin/../lib/gcc/nios2-elf/4.1.2/../../../../nios2-elf/lib\libc.a(lib_a-atexit.o)
 .bss           0x0084d41a        0x0 c:/altera/13.0sp1/nios2eds/bin/gnu/h-i686-mingw32/bin/../lib/gcc/nios2-elf/4.1.2/../../../../nios2-elf/lib\libc.a(lib_a-atoi.o)
 .bss           0x0084d41a        0x0 c:/altera/13.0sp1/nios2eds/bin/gnu/h-i686-mingw32/bin/../lib/gcc/nios2-elf/4.1.2/../../../../nios2-elf/lib\libc.a(lib_a-calloc.o)
 .bss           0x0084d41a        0x0 c:/altera/13.0sp1/nios2eds/bin/gnu/h-i686-mingw32/bin/../lib/gcc/nios2-elf/4.1.2/../../../../nios2-elf/lib\libc.a(lib_a-memcmp.o)
 .bss           0x0084d41a        0x0 c:/altera/13.0sp1/nios2eds/bin/gnu/h-i686-mingw32/bin/../lib/gcc/nios2-elf/4.1.2/../../../../nios2-elf/lib\libc.a(lib_a-strcpy.o)
 .bss           0x0084d41a        0x0 c:/altera/13.0sp1/nios2eds/bin/gnu/h-i686-mingw32/bin/../lib/gcc/nios2-elf/4.1.2/../../../../nios2-elf/lib\libc.a(lib_a-strncmp.o)
 .bss           0x0084d41a        0x0 c:/altera/13.0sp1/nios2eds/bin/gnu/h-i686-mingw32/bin/../lib/gcc/nios2-elf/4.1.2/../../../../nios2-elf/lib\libc.a(lib_a-vprintf.o)
 .bss           0x0084d41a        0x0 c:/altera/13.0sp1/nios2eds/bin/gnu/h-i686-mingw32/bin/../lib/gcc/nios2-elf/4.1.2/../../../../nios2-elf/lib\libc.a(lib_a-vsprintf.o)
 .bss           0x0084d41a        0x0 c:/altera/13.0sp1/nios2eds/bin/gnu/h-i686-mingw32/bin/../lib/gcc/nios2-elf/4.1.2/../../../../nios2-elf/lib\libc.a(lib_a-__atexit.o)
 *(COMMON)
 *fill*         0x0084d41a        0x2 00
 COMMON         0x0084d41c       0x44 obj/default/dm9000a.o
                0x0084d41c                g_dm9ka
 COMMON         0x0084d460     0x2000 obj/default/main.o
                0x0084d460                SSSInitialTaskStk
 COMMON         0x0084f460     0x4078 obj/default/simple_socket_server.o
                0x0084f460                LED7SegLightshowTaskStk
                0x00851460                SSSLEDCommandQTbl
                0x008514d8                LEDManagementTaskStk
 COMMON         0x008534d8     0x3224 ../SemaforoNet_bsp/\libucosii_bsp.a(os_core.o)
                0x008534d8                OSFlagTbl
                0x00853848                OSMemTbl
                0x00854478                OSTaskStatStk
                0x00854c78                OSQTbl
                0x00854e58                OSTaskIdleStk
                0x00855658                OSEventTbl
                0x00856198                OSTCBTbl
                0x008566a8                OSTCBPrioTbl
 COMMON         0x008566fc       0x14 ../SemaforoNet_bsp/\libucosii_bsp.a(ipnet.o)
                0x008566fc                rcvdq
 COMMON         0x00856710      0x310 ../SemaforoNet_bsp/\libucosii_bsp.a(ipstart.o)
                0x00856710                netstatic
                0x00856a10                nets
 COMMON         0x00856a20       0x64 ../SemaforoNet_bsp/\libucosii_bsp.a(igmp_cmn.o)
                0x00856a20                igmpstats
 COMMON         0x00856a84       0x24 ../SemaforoNet_bsp/\libucosii_bsp.a(in_utils.o)
                0x00856a84                eth_prt_buf
                0x00856a96                ipreturn
 COMMON         0x00856aa8       0xf0 ../SemaforoNet_bsp/\libucosii_bsp.a(dhcpclnt.o)
                0x00856aa8                dhc_states
 COMMON         0x00856b98      0x128 ../SemaforoNet_bsp/\libucosii_bsp.a(pktalloc.o)
                0x00856b98                lilfreeq
                0x00856bac                memestats
                0x00856bbc                pktlog
                0x00856cac                bigfreeq
 COMMON         0x00856cc0      0x1ec ../SemaforoNet_bsp/\libucosii_bsp.a(osportco.o)
                0x00856cc0                global_tcb_ext
                0x00856dbc                global_TCPwakeup_set
 COMMON         0x00856eac       0x58 ../SemaforoNet_bsp/\libucosii_bsp.a(targnios.o)
                0x00856eac                resid_semaphore
                0x00856eec                app_semaphore
 COMMON         0x00856f04       0x78 ../SemaforoNet_bsp/\libucosii_bsp.a(nptcp.o)
                0x00856f04                soq
                0x00856f18                tcpmib
                0x00856f54                mbufq
                0x00856f68                mfreeq
 COMMON         0x00856f7c       0x28 ../SemaforoNet_bsp/\libucosii_bsp.a(tcp_in.o)
                0x00856f7c                tcp_saveti
 COMMON         0x00856fa4      0x10c ../SemaforoNet_bsp/\libucosii_bsp.a(tcp_subr.o)
                0x00856fa4                tcb
                0x00856fd0                tcpstat
 COMMON         0x008570b0      0x100 ../SemaforoNet_bsp/\libucosii_bsp.a(alt_irq_handler.o)
                0x008570b0                alt_irq
 COMMON         0x008571b0       0x64 ../SemaforoNet_bsp/\libucosii_bsp.a(timeouts.o)
                0x008571b0                intimers
 COMMON         0x00857214      0x100 ../SemaforoNet_bsp/\libucosii_bsp.a(et_arp.o)
                0x00857214                arp_table
 COMMON         0x00857314       0x14 ../SemaforoNet_bsp/\libucosii_bsp.a(iface.o)
                0x00857314                netlist
 COMMON         0x00857328       0x50 ../SemaforoNet_bsp/\libucosii_bsp.a(ip.o)
                0x00857328                ip_mib
 COMMON         0x00857378       0x18 ../SemaforoNet_bsp/\libucosii_bsp.a(ip_reasm.o)
                0x00857378                ire_stats
 COMMON         0x00857390       0x10 ../SemaforoNet_bsp/\libucosii_bsp.a(udp.o)
                0x00857390                udp_mib
 COMMON         0x008573a0       0x68 ../SemaforoNet_bsp/\libucosii_bsp.a(icmp.o)
                0x008573a0                icmp_mib
 COMMON         0x00857408      0x190 c:/altera/13.0sp1/nios2eds/bin/gnu/h-i686-mingw32/bin/../lib/gcc/nios2-elf/4.1.2/../../../../nios2-elf/lib\libc.a(lib_a-atexit.o)
                0x00857408                _atexit0
                0x00857598                . = ALIGN (0x4)
                0x00857598                __bss_end = ABSOLUTE (.)

.sdram_0        0x00857598        0x0
                0x00857598                PROVIDE (_alt_partition_sdram_0_start, ABSOLUTE (.))
 *(.sdram_0. sdram_0.*)
                0x00857598                . = ALIGN (0x4)
                0x00857598                PROVIDE (_alt_partition_sdram_0_end, ABSOLUTE (.))
                0x00857598                _end = ABSOLUTE (.)
                0x00857598                end = ABSOLUTE (.)
                0x00857598                __alt_stack_base = ABSOLUTE (.)
                0x00857598                PROVIDE (_alt_partition_sdram_0_load_addr, LOADADDR (.sdram_0))

.cfi_flash_0    0x01400020        0x0
                0x01400020                PROVIDE (_alt_partition_cfi_flash_0_start, ABSOLUTE (.))
 *(.cfi_flash_0. cfi_flash_0.*)
                0x01400020                . = ALIGN (0x4)
                0x01400020                PROVIDE (_alt_partition_cfi_flash_0_end, ABSOLUTE (.))
                0x01400020                PROVIDE (_alt_partition_cfi_flash_0_load_addr, LOADADDR (.cfi_flash_0))

.sram_0         0x01a00000        0x0
                0x01a00000                PROVIDE (_alt_partition_sram_0_start, ABSOLUTE (.))
 *(.sram_0. sram_0.*)
                0x01a00000                . = ALIGN (0x4)
                0x01a00000                PROVIDE (_alt_partition_sram_0_end, ABSOLUTE (.))
                0x01a00000                PROVIDE (_alt_partition_sram_0_load_addr, LOADADDR (.sram_0))

.epcs_controller
                0x01a81800        0x0
                0x01a81800                PROVIDE (_alt_partition_epcs_controller_start, ABSOLUTE (.))
 *(.epcs_controller. epcs_controller.*)
                0x01a81800                . = ALIGN (0x4)
                0x01a81800                PROVIDE (_alt_partition_epcs_controller_end, ABSOLUTE (.))
                0x01a81800                PROVIDE (_alt_partition_epcs_controller_load_addr, LOADADDR (.epcs_controller))

.stab
 *(.stab)

.stabstr
 *(.stabstr)

.stab.excl
 *(.stab.excl)

.stab.exclstr
 *(.stab.exclstr)

.stab.index
 *(.stab.index)

.stab.indexstr
 *(.stab.indexstr)

.comment        0x00000000       0x26
 *(.comment)
 .comment       0x00000000       0x26 obj/default/alt_error_handler.o
                                 0x27 (size before relaxing)
 .comment       0x00000000       0x27 obj/default/dm9000a.o
 .comment       0x00000000       0x27 obj/default/led.o
 .comment       0x00000000       0x27 obj/default/main.o
 .comment       0x00000000       0x27 obj/default/network_utilities.o
 .comment       0x00000000       0x27 obj/default/simple_socket_server.o
 .comment       0x00000000       0x27 obj/default/tse_my_system.o
 .comment       0x00000000       0x27 c:/altera/13.0sp1/nios2eds/bin/gnu/h-i686-mingw32/bin/../lib/gcc/nios2-elf/4.1.2\libgcc.a(_fixunsdfsi.o)
 .comment       0x00000000       0x27 c:/altera/13.0sp1/nios2eds/bin/gnu/h-i686-mingw32/bin/../lib/gcc/nios2-elf/4.1.2\libgcc.a(_addsub_df.o)
 .comment       0x00000000       0x27 c:/altera/13.0sp1/nios2eds/bin/gnu/h-i686-mingw32/bin/../lib/gcc/nios2-elf/4.1.2\libgcc.a(_mul_df.o)
 .comment       0x00000000       0x27 c:/altera/13.0sp1/nios2eds/bin/gnu/h-i686-mingw32/bin/../lib/gcc/nios2-elf/4.1.2\libgcc.a(_ge_df.o)
 .comment       0x00000000       0x27 c:/altera/13.0sp1/nios2eds/bin/gnu/h-i686-mingw32/bin/../lib/gcc/nios2-elf/4.1.2\libgcc.a(_df_to_si.o)
 .comment       0x00000000       0x27 c:/altera/13.0sp1/nios2eds/bin/gnu/h-i686-mingw32/bin/../lib/gcc/nios2-elf/4.1.2\libgcc.a(_thenan_df.o)
 .comment       0x00000000       0x27 c:/altera/13.0sp1/nios2eds/bin/gnu/h-i686-mingw32/bin/../lib/gcc/nios2-elf/4.1.2\libgcc.a(_usi_to_df.o)
 .comment       0x00000000       0x27 c:/altera/13.0sp1/nios2eds/bin/gnu/h-i686-mingw32/bin/../lib/gcc/nios2-elf/4.1.2\libgcc.a(_muldi3.o)
 .comment       0x00000000       0x27 c:/altera/13.0sp1/nios2eds/bin/gnu/h-i686-mingw32/bin/../lib/gcc/nios2-elf/4.1.2\libgcc.a(_clzsi2.o)
 .comment       0x00000000       0x27 c:/altera/13.0sp1/nios2eds/bin/gnu/h-i686-mingw32/bin/../lib/gcc/nios2-elf/4.1.2\libgcc.a(_pack_df.o)
 .comment       0x00000000       0x27 c:/altera/13.0sp1/nios2eds/bin/gnu/h-i686-mingw32/bin/../lib/gcc/nios2-elf/4.1.2\libgcc.a(_unpack_df.o)
 .comment       0x00000000       0x27 c:/altera/13.0sp1/nios2eds/bin/gnu/h-i686-mingw32/bin/../lib/gcc/nios2-elf/4.1.2\libgcc.a(_fpcmp_parts_df.o)
 .comment       0x00000000       0x27 c:/altera/13.0sp1/nios2eds/bin/gnu/h-i686-mingw32/bin/../lib/gcc/nios2-elf/4.1.2\libgcc.a(_clz.o)
 .comment       0x00000000       0x27 c:/altera/13.0sp1/nios2eds/bin/gnu/h-i686-mingw32/bin/../lib/gcc/nios2-elf/4.1.2/../../../../nios2-elf/lib\libc.a(lib_a-ctype_.o)
 .comment       0x00000000       0x27 c:/altera/13.0sp1/nios2eds/bin/gnu/h-i686-mingw32/bin/../lib/gcc/nios2-elf/4.1.2/../../../../nios2-elf/lib\libc.a(lib_a-exit.o)
 .comment       0x00000000       0x27 c:/altera/13.0sp1/nios2eds/bin/gnu/h-i686-mingw32/bin/../lib/gcc/nios2-elf/4.1.2/../../../../nios2-elf/lib\libc.a(lib_a-fprintf.o)
 .comment       0x00000000       0x27 c:/altera/13.0sp1/nios2eds/bin/gnu/h-i686-mingw32/bin/../lib/gcc/nios2-elf/4.1.2/../../../../nios2-elf/lib\libc.a(lib_a-fwrite.o)
 .comment       0x00000000       0x27 c:/altera/13.0sp1/nios2eds/bin/gnu/h-i686-mingw32/bin/../lib/gcc/nios2-elf/4.1.2/../../../../nios2-elf/lib\libc.a(lib_a-getc.o)
 .comment       0x00000000       0x27 c:/altera/13.0sp1/nios2eds/bin/gnu/h-i686-mingw32/bin/../lib/gcc/nios2-elf/4.1.2/../../../../nios2-elf/lib\libc.a(lib_a-impure.o)
 .comment       0x00000000       0x27 c:/altera/13.0sp1/nios2eds/bin/gnu/h-i686-mingw32/bin/../lib/gcc/nios2-elf/4.1.2/../../../../nios2-elf/lib\libc.a(lib_a-malloc.o)
 .comment       0x00000000       0x27 c:/altera/13.0sp1/nios2eds/bin/gnu/h-i686-mingw32/bin/../lib/gcc/nios2-elf/4.1.2/../../../../nios2-elf/lib\libc.a(lib_a-mallocr.o)
 .comment       0x00000000       0x27 c:/altera/13.0sp1/nios2eds/bin/gnu/h-i686-mingw32/bin/../lib/gcc/nios2-elf/4.1.2/../../../../nios2-elf/lib\libc.a(lib_a-memcpy.o)
 .comment       0x00000000       0x27 c:/altera/13.0sp1/nios2eds/bin/gnu/h-i686-mingw32/bin/../lib/gcc/nios2-elf/4.1.2/../../../../nios2-elf/lib\libc.a(lib_a-memmove.o)
 .comment       0x00000000       0x27 c:/altera/13.0sp1/nios2eds/bin/gnu/h-i686-mingw32/bin/../lib/gcc/nios2-elf/4.1.2/../../../../nios2-elf/lib\libc.a(lib_a-memset.o)
 .comment       0x00000000       0x27 c:/altera/13.0sp1/nios2eds/bin/gnu/h-i686-mingw32/bin/../lib/gcc/nios2-elf/4.1.2/../../../../nios2-elf/lib\libc.a(lib_a-perror.o)
 .comment       0x00000000       0x27 c:/altera/13.0sp1/nios2eds/bin/gnu/h-i686-mingw32/bin/../lib/gcc/nios2-elf/4.1.2/../../../../nios2-elf/lib\libc.a(lib_a-printf.o)
 .comment       0x00000000       0x27 c:/altera/13.0sp1/nios2eds/bin/gnu/h-i686-mingw32/bin/../lib/gcc/nios2-elf/4.1.2/../../../../nios2-elf/lib\libc.a(lib_a-putc.o)
 .comment       0x00000000       0x27 c:/altera/13.0sp1/nios2eds/bin/gnu/h-i686-mingw32/bin/../lib/gcc/nios2-elf/4.1.2/../../../../nios2-elf/lib\libc.a(lib_a-putchar.o)
 .comment       0x00000000       0x27 c:/altera/13.0sp1/nios2eds/bin/gnu/h-i686-mingw32/bin/../lib/gcc/nios2-elf/4.1.2/../../../../nios2-elf/lib\libc.a(lib_a-puts.o)
 .comment       0x00000000       0x27 c:/altera/13.0sp1/nios2eds/bin/gnu/h-i686-mingw32/bin/../lib/gcc/nios2-elf/4.1.2/../../../../nios2-elf/lib\libc.a(lib_a-rget.o)
 .comment       0x00000000       0x27 c:/altera/13.0sp1/nios2eds/bin/gnu/h-i686-mingw32/bin/../lib/gcc/nios2-elf/4.1.2/../../../../nios2-elf/lib\libc.a(lib_a-sbrkr.o)
 .comment       0x00000000       0x27 c:/altera/13.0sp1/nios2eds/bin/gnu/h-i686-mingw32/bin/../lib/gcc/nios2-elf/4.1.2/../../../../nios2-elf/lib\libc.a(lib_a-sprintf.o)
 .comment       0x00000000       0x27 c:/altera/13.0sp1/nios2eds/bin/gnu/h-i686-mingw32/bin/../lib/gcc/nios2-elf/4.1.2/../../../../nios2-elf/lib\libc.a(lib_a-strchr.o)
 .comment       0x00000000       0x27 c:/altera/13.0sp1/nios2eds/bin/gnu/h-i686-mingw32/bin/../lib/gcc/nios2-elf/4.1.2/../../../../nios2-elf/lib\libc.a(lib_a-strcmp.o)
 .comment       0x00000000       0x27 c:/altera/13.0sp1/nios2eds/bin/gnu/h-i686-mingw32/bin/../lib/gcc/nios2-elf/4.1.2/../../../../nios2-elf/lib\libc.a(lib_a-strerror.o)
 .comment       0x00000000       0x27 c:/altera/13.0sp1/nios2eds/bin/gnu/h-i686-mingw32/bin/../lib/gcc/nios2-elf/4.1.2/../../../../nios2-elf/lib\libc.a(lib_a-strlen.o)
 .comment       0x00000000       0x27 c:/altera/13.0sp1/nios2eds/bin/gnu/h-i686-mingw32/bin/../lib/gcc/nios2-elf/4.1.2/../../../../nios2-elf/lib\libc.a(lib_a-strncpy.o)
 .comment       0x00000000       0x27 c:/altera/13.0sp1/nios2eds/bin/gnu/h-i686-mingw32/bin/../lib/gcc/nios2-elf/4.1.2/../../../../nios2-elf/lib\libc.a(lib_a-strtol.o)
 .comment       0x00000000       0x27 c:/altera/13.0sp1/nios2eds/bin/gnu/h-i686-mingw32/bin/../lib/gcc/nios2-elf/4.1.2/../../../../nios2-elf/lib\libc.a(lib_a-u_strerr.o)
 .comment       0x00000000       0x27 c:/altera/13.0sp1/nios2eds/bin/gnu/h-i686-mingw32/bin/../lib/gcc/nios2-elf/4.1.2/../../../../nios2-elf/lib\libc.a(lib_a-vfprintf.o)
 .comment       0x00000000       0x27 c:/altera/13.0sp1/nios2eds/bin/gnu/h-i686-mingw32/bin/../lib/gcc/nios2-elf/4.1.2/../../../../nios2-elf/lib\libc.a(lib_a-wbuf.o)
 .comment       0x00000000       0x27 c:/altera/13.0sp1/nios2eds/bin/gnu/h-i686-mingw32/bin/../lib/gcc/nios2-elf/4.1.2/../../../../nios2-elf/lib\libc.a(lib_a-wsetup.o)
 .comment       0x00000000       0x27 c:/altera/13.0sp1/nios2eds/bin/gnu/h-i686-mingw32/bin/../lib/gcc/nios2-elf/4.1.2/../../../../nios2-elf/lib\libc.a(lib_a-__call_atexit.o)
 .comment       0x00000000       0x27 c:/altera/13.0sp1/nios2eds/bin/gnu/h-i686-mingw32/bin/../lib/gcc/nios2-elf/4.1.2/../../../../nios2-elf/lib\libc.a(lib_a-dtoa.o)
 .comment       0x00000000       0x27 c:/altera/13.0sp1/nios2eds/bin/gnu/h-i686-mingw32/bin/../lib/gcc/nios2-elf/4.1.2/../../../../nios2-elf/lib\libc.a(lib_a-fflush.o)
 .comment       0x00000000       0x27 c:/altera/13.0sp1/nios2eds/bin/gnu/h-i686-mingw32/bin/../lib/gcc/nios2-elf/4.1.2/../../../../nios2-elf/lib\libc.a(lib_a-findfp.o)
 .comment       0x00000000       0x27 c:/altera/13.0sp1/nios2eds/bin/gnu/h-i686-mingw32/bin/../lib/gcc/nios2-elf/4.1.2/../../../../nios2-elf/lib\libc.a(lib_a-fputc.o)
 .comment       0x00000000       0x27 c:/altera/13.0sp1/nios2eds/bin/gnu/h-i686-mingw32/bin/../lib/gcc/nios2-elf/4.1.2/../../../../nios2-elf/lib\libc.a(lib_a-fputs.o)
 .comment       0x00000000       0x27 c:/altera/13.0sp1/nios2eds/bin/gnu/h-i686-mingw32/bin/../lib/gcc/nios2-elf/4.1.2/../../../../nios2-elf/lib\libc.a(lib_a-freer.o)
 .comment       0x00000000       0x27 c:/altera/13.0sp1/nios2eds/bin/gnu/h-i686-mingw32/bin/../lib/gcc/nios2-elf/4.1.2/../../../../nios2-elf/lib\libc.a(lib_a-fvwrite.o)
 .comment       0x00000000       0x27 c:/altera/13.0sp1/nios2eds/bin/gnu/h-i686-mingw32/bin/../lib/gcc/nios2-elf/4.1.2/../../../../nios2-elf/lib\libc.a(lib_a-fwalk.o)
 .comment       0x00000000       0x27 c:/altera/13.0sp1/nios2eds/bin/gnu/h-i686-mingw32/bin/../lib/gcc/nios2-elf/4.1.2/../../../../nios2-elf/lib\libc.a(lib_a-int_errno.o)
 .comment       0x00000000       0x27 c:/altera/13.0sp1/nios2eds/bin/gnu/h-i686-mingw32/bin/../lib/gcc/nios2-elf/4.1.2/../../../../nios2-elf/lib\libc.a(lib_a-locale.o)
 .comment       0x00000000       0x27 c:/altera/13.0sp1/nios2eds/bin/gnu/h-i686-mingw32/bin/../lib/gcc/nios2-elf/4.1.2/../../../../nios2-elf/lib\libc.a(lib_a-makebuf.o)
 .comment       0x00000000       0x27 c:/altera/13.0sp1/nios2eds/bin/gnu/h-i686-mingw32/bin/../lib/gcc/nios2-elf/4.1.2/../../../../nios2-elf/lib\libc.a(lib_a-memchr.o)
 .comment       0x00000000       0x27 c:/altera/13.0sp1/nios2eds/bin/gnu/h-i686-mingw32/bin/../lib/gcc/nios2-elf/4.1.2/../../../../nios2-elf/lib\libc.a(lib_a-mprec.o)
 .comment       0x00000000       0x27 c:/altera/13.0sp1/nios2eds/bin/gnu/h-i686-mingw32/bin/../lib/gcc/nios2-elf/4.1.2/../../../../nios2-elf/lib\libc.a(lib_a-reallocr.o)
 .comment       0x00000000       0x27 c:/altera/13.0sp1/nios2eds/bin/gnu/h-i686-mingw32/bin/../lib/gcc/nios2-elf/4.1.2/../../../../nios2-elf/lib\libc.a(lib_a-refill.o)
 .comment       0x00000000       0x27 c:/altera/13.0sp1/nios2eds/bin/gnu/h-i686-mingw32/bin/../lib/gcc/nios2-elf/4.1.2/../../../../nios2-elf/lib\libc.a(lib_a-s_isinfd.o)
 .comment       0x00000000       0x27 c:/altera/13.0sp1/nios2eds/bin/gnu/h-i686-mingw32/bin/../lib/gcc/nios2-elf/4.1.2/../../../../nios2-elf/lib\libc.a(lib_a-s_isnand.o)
 .comment       0x00000000       0x27 c:/altera/13.0sp1/nios2eds/bin/gnu/h-i686-mingw32/bin/../lib/gcc/nios2-elf/4.1.2/../../../../nios2-elf/lib\libc.a(lib_a-stdio.o)
 .comment       0x00000000       0x27 c:/altera/13.0sp1/nios2eds/bin/gnu/h-i686-mingw32/bin/../lib/gcc/nios2-elf/4.1.2/../../../../nios2-elf/lib\libc.a(lib_a-writer.o)
 .comment       0x00000000       0x27 c:/altera/13.0sp1/nios2eds/bin/gnu/h-i686-mingw32/bin/../lib/gcc/nios2-elf/4.1.2/../../../../nios2-elf/lib\libc.a(lib_a-callocr.o)
 .comment       0x00000000       0x27 c:/altera/13.0sp1/nios2eds/bin/gnu/h-i686-mingw32/bin/../lib/gcc/nios2-elf/4.1.2/../../../../nios2-elf/lib\libc.a(lib_a-closer.o)
 .comment       0x00000000       0x27 c:/altera/13.0sp1/nios2eds/bin/gnu/h-i686-mingw32/bin/../lib/gcc/nios2-elf/4.1.2/../../../../nios2-elf/lib\libc.a(lib_a-fclose.o)
 .comment       0x00000000       0x27 c:/altera/13.0sp1/nios2eds/bin/gnu/h-i686-mingw32/bin/../lib/gcc/nios2-elf/4.1.2/../../../../nios2-elf/lib\libc.a(lib_a-fstatr.o)
 .comment       0x00000000       0x27 c:/altera/13.0sp1/nios2eds/bin/gnu/h-i686-mingw32/bin/../lib/gcc/nios2-elf/4.1.2/../../../../nios2-elf/lib\libc.a(lib_a-isattyr.o)
 .comment       0x00000000       0x27 c:/altera/13.0sp1/nios2eds/bin/gnu/h-i686-mingw32/bin/../lib/gcc/nios2-elf/4.1.2/../../../../nios2-elf/lib\libc.a(lib_a-lseekr.o)
 .comment       0x00000000       0x27 c:/altera/13.0sp1/nios2eds/bin/gnu/h-i686-mingw32/bin/../lib/gcc/nios2-elf/4.1.2/../../../../nios2-elf/lib\libc.a(lib_a-readr.o)
 .comment       0x00000000       0x27 c:/altera/13.0sp1/nios2eds/bin/gnu/h-i686-mingw32/bin/../lib/gcc/nios2-elf/4.1.2\libgcc.a(_udivdi3.o)
 .comment       0x00000000       0x27 c:/altera/13.0sp1/nios2eds/bin/gnu/h-i686-mingw32/bin/../lib/gcc/nios2-elf/4.1.2\libgcc.a(_umoddi3.o)
 .comment       0x00000000       0x27 c:/altera/13.0sp1/nios2eds/bin/gnu/h-i686-mingw32/bin/../lib/gcc/nios2-elf/4.1.2\libgcc.a(_div_df.o)
 .comment       0x00000000       0x27 c:/altera/13.0sp1/nios2eds/bin/gnu/h-i686-mingw32/bin/../lib/gcc/nios2-elf/4.1.2\libgcc.a(_eq_df.o)
 .comment       0x00000000       0x27 c:/altera/13.0sp1/nios2eds/bin/gnu/h-i686-mingw32/bin/../lib/gcc/nios2-elf/4.1.2\libgcc.a(_ne_df.o)
 .comment       0x00000000       0x27 c:/altera/13.0sp1/nios2eds/bin/gnu/h-i686-mingw32/bin/../lib/gcc/nios2-elf/4.1.2\libgcc.a(_gt_df.o)
 .comment       0x00000000       0x27 c:/altera/13.0sp1/nios2eds/bin/gnu/h-i686-mingw32/bin/../lib/gcc/nios2-elf/4.1.2\libgcc.a(_lt_df.o)
 .comment       0x00000000       0x27 c:/altera/13.0sp1/nios2eds/bin/gnu/h-i686-mingw32/bin/../lib/gcc/nios2-elf/4.1.2\libgcc.a(_si_to_df.o)
 .comment       0x00000000       0x27 c:/altera/13.0sp1/nios2eds/bin/gnu/h-i686-mingw32/bin/../lib/gcc/nios2-elf/4.1.2\libgcc.a(lib2-divmod.o)
 .comment       0x00000000       0x27 ../SemaforoNet_bsp/\libucosii_bsp.a(alt_exit.o)
 .comment       0x00000000       0x27 ../SemaforoNet_bsp/\libucosii_bsp.a(alt_flash_dev.o)
 .comment       0x00000000       0x27 ../SemaforoNet_bsp/\libucosii_bsp.a(alt_fstat.o)
 .comment       0x00000000       0x27 ../SemaforoNet_bsp/\libucosii_bsp.a(alt_irq_register.o)
 .comment       0x00000000       0x27 ../SemaforoNet_bsp/\libucosii_bsp.a(alt_irq_vars.o)
 .comment       0x00000000       0x27 ../SemaforoNet_bsp/\libucosii_bsp.a(alt_isatty.o)
 .comment       0x00000000       0x27 ../SemaforoNet_bsp/\libucosii_bsp.a(alt_lseek.o)
 .comment       0x00000000       0x27 ../SemaforoNet_bsp/\libucosii_bsp.a(alt_main.o)
 .comment       0x00000000       0x27 ../SemaforoNet_bsp/\libucosii_bsp.a(alt_sbrk.o)
 .comment       0x00000000       0x27 ../SemaforoNet_bsp/\libucosii_bsp.a(alt_usleep.o)
 .comment       0x00000000       0x27 ../SemaforoNet_bsp/\libucosii_bsp.a(alt_env_lock.o)
 .comment       0x00000000       0x27 ../SemaforoNet_bsp/\libucosii_bsp.a(alt_malloc_lock.o)
 .comment       0x00000000       0x27 ../SemaforoNet_bsp/\libucosii_bsp.a(os_core.o)
 .comment       0x00000000       0x27 ../SemaforoNet_bsp/\libucosii_bsp.a(os_dbg.o)
 .comment       0x00000000       0x27 ../SemaforoNet_bsp/\libucosii_bsp.a(os_flag.o)
 .comment       0x00000000       0x27 ../SemaforoNet_bsp/\libucosii_bsp.a(os_mem.o)
 .comment       0x00000000       0x27 ../SemaforoNet_bsp/\libucosii_bsp.a(os_q.o)
 .comment       0x00000000       0x27 ../SemaforoNet_bsp/\libucosii_bsp.a(os_sem.o)
 .comment       0x00000000       0x27 ../SemaforoNet_bsp/\libucosii_bsp.a(os_task.o)
 .comment       0x00000000       0x27 ../SemaforoNet_bsp/\libucosii_bsp.a(os_time.o)
 .comment       0x00000000       0x27 ../SemaforoNet_bsp/\libucosii_bsp.a(alt_sys_init.o)
 .comment       0x00000000       0x27 ../SemaforoNet_bsp/\libucosii_bsp.a(altera_avalon_cfi_flash.o)
 .comment       0x00000000       0x27 ../SemaforoNet_bsp/\libucosii_bsp.a(altera_avalon_cfi_flash_table.o)
 .comment       0x00000000       0x27 ../SemaforoNet_bsp/\libucosii_bsp.a(altera_avalon_epcs_flash_controller.o)
 .comment       0x00000000       0x27 ../SemaforoNet_bsp/\libucosii_bsp.a(altera_avalon_jtag_uart_fd.o)
 .comment       0x00000000       0x27 ../SemaforoNet_bsp/\libucosii_bsp.a(altera_avalon_jtag_uart_init.o)
 .comment       0x00000000       0x27 ../SemaforoNet_bsp/\libucosii_bsp.a(altera_avalon_jtag_uart_ioctl.o)
 .comment       0x00000000       0x27 ../SemaforoNet_bsp/\libucosii_bsp.a(altera_avalon_jtag_uart_read.o)
 .comment       0x00000000       0x27 ../SemaforoNet_bsp/\libucosii_bsp.a(altera_avalon_jtag_uart_write.o)
 .comment       0x00000000       0x27 ../SemaforoNet_bsp/\libucosii_bsp.a(altera_avalon_lcd_16207.o)
 .comment       0x00000000       0x27 ../SemaforoNet_bsp/\libucosii_bsp.a(altera_avalon_lcd_16207_fd.o)
 .comment       0x00000000       0x27 ../SemaforoNet_bsp/\libucosii_bsp.a(altera_avalon_timer_sc.o)
 .comment       0x00000000       0x27 ../SemaforoNet_bsp/\libucosii_bsp.a(altera_avalon_uart_fd.o)
 .comment       0x00000000       0x27 ../SemaforoNet_bsp/\libucosii_bsp.a(altera_avalon_uart_init.o)
 .comment       0x00000000       0x27 ../SemaforoNet_bsp/\libucosii_bsp.a(altera_avalon_uart_read.o)
 .comment       0x00000000       0x27 ../SemaforoNet_bsp/\libucosii_bsp.a(altera_avalon_uart_write.o)
 .comment       0x00000000       0x27 ../SemaforoNet_bsp/\libucosii_bsp.a(epcs_commands.o)
 .comment       0x00000000       0x27 ../SemaforoNet_bsp/\libucosii_bsp.a(alt_iniche_close.o)
 .comment       0x00000000       0x27 ../SemaforoNet_bsp/\libucosii_bsp.a(alt_iniche_dev.o)
 .comment       0x00000000       0x27 ../SemaforoNet_bsp/\libucosii_bsp.a(alt_iniche_read.o)
 .comment       0x00000000       0x27 ../SemaforoNet_bsp/\libucosii_bsp.a(alt_iniche_write.o)
 .comment       0x00000000       0x27 ../SemaforoNet_bsp/\libucosii_bsp.a(ipnet.o)
 .comment       0x00000000       0x27 ../SemaforoNet_bsp/\libucosii_bsp.a(ipstart.o)
 .comment       0x00000000       0x27 ../SemaforoNet_bsp/\libucosii_bsp.a(igmp_cmn.o)
 .comment       0x00000000       0x27 ../SemaforoNet_bsp/\libucosii_bsp.a(bsdsock.o)
 .comment       0x00000000       0x27 ../SemaforoNet_bsp/\libucosii_bsp.a(cksum.o)
 .comment       0x00000000       0x27 ../SemaforoNet_bsp/\libucosii_bsp.a(in_utils.o)
 .comment       0x00000000       0x27 ../SemaforoNet_bsp/\libucosii_bsp.a(netmain.o)
 .comment       0x00000000       0x27 ../SemaforoNet_bsp/\libucosii_bsp.a(parseip.o)
 .comment       0x00000000       0x27 ../SemaforoNet_bsp/\libucosii_bsp.a(tk_crnos.o)
 .comment       0x00000000       0x27 ../SemaforoNet_bsp/\libucosii_bsp.a(dhcpclnt.o)
 .comment       0x00000000       0x27 ../SemaforoNet_bsp/\libucosii_bsp.a(dhcputil.o)
 .comment       0x00000000       0x27 ../SemaforoNet_bsp/\libucosii_bsp.a(pktalloc.o)
 .comment       0x00000000       0x27 ../SemaforoNet_bsp/\libucosii_bsp.a(q.o)
 .comment       0x00000000       0x27 ../SemaforoNet_bsp/\libucosii_bsp.a(udp_open.o)
 .comment       0x00000000       0x27 ../SemaforoNet_bsp/\libucosii_bsp.a(brdutils.o)
 .comment       0x00000000       0x27 ../SemaforoNet_bsp/\libucosii_bsp.a(osportco.o)
 .comment       0x00000000       0x27 ../SemaforoNet_bsp/\libucosii_bsp.a(targnios.o)
 .comment       0x00000000       0x27 ../SemaforoNet_bsp/\libucosii_bsp.a(nptcp.o)
 .comment       0x00000000       0x27 ../SemaforoNet_bsp/\libucosii_bsp.a(rawsock.o)
 .comment       0x00000000       0x27 ../SemaforoNet_bsp/\libucosii_bsp.a(sockcall.o)
 .comment       0x00000000       0x27 ../SemaforoNet_bsp/\libucosii_bsp.a(socket.o)
 .comment       0x00000000       0x27 ../SemaforoNet_bsp/\libucosii_bsp.a(socket2.o)
 .comment       0x00000000       0x27 ../SemaforoNet_bsp/\libucosii_bsp.a(soselect.o)
 .comment       0x00000000       0x27 ../SemaforoNet_bsp/\libucosii_bsp.a(tcp_in.o)
 .comment       0x00000000       0x27 ../SemaforoNet_bsp/\libucosii_bsp.a(tcp_out.o)
 .comment       0x00000000       0x27 ../SemaforoNet_bsp/\libucosii_bsp.a(tcp_subr.o)
 .comment       0x00000000       0x27 ../SemaforoNet_bsp/\libucosii_bsp.a(tcp_timr.o)
 .comment       0x00000000       0x27 ../SemaforoNet_bsp/\libucosii_bsp.a(tcp_usr.o)
 .comment       0x00000000       0x27 ../SemaforoNet_bsp/\libucosii_bsp.a(tcpport.o)
 .comment       0x00000000       0x27 ../SemaforoNet_bsp/\libucosii_bsp.a(udpsock.o)
 .comment       0x00000000       0x27 ../SemaforoNet_bsp/\libucosii_bsp.a(alt_alarm_start.o)
 .comment       0x00000000       0x27 ../SemaforoNet_bsp/\libucosii_bsp.a(alt_busy_sleep.o)
 .comment       0x00000000       0x27 ../SemaforoNet_bsp/\libucosii_bsp.a(alt_close.o)
 .comment       0x00000000       0x27 ../SemaforoNet_bsp/\libucosii_bsp.a(alt_dcache_flush.o)
 .comment       0x00000000       0x27 ../SemaforoNet_bsp/\libucosii_bsp.a(alt_dev.o)
 .comment       0x00000000       0x27 ../SemaforoNet_bsp/\libucosii_bsp.a(alt_dev_llist_insert.o)
 .comment       0x00000000       0x27 ../SemaforoNet_bsp/\libucosii_bsp.a(alt_do_ctors.o)
 .comment       0x00000000       0x27 ../SemaforoNet_bsp/\libucosii_bsp.a(alt_do_dtors.o)
 .comment       0x00000000       0x27 ../SemaforoNet_bsp/\libucosii_bsp.a(alt_errno.o)
 .comment       0x00000000       0x27 ../SemaforoNet_bsp/\libucosii_bsp.a(alt_find_dev.o)
 .comment       0x00000000       0x27 ../SemaforoNet_bsp/\libucosii_bsp.a(alt_iic.o)
 .comment       0x00000000       0x27 ../SemaforoNet_bsp/\libucosii_bsp.a(alt_iic_isr_register.o)
 .comment       0x00000000       0x27 ../SemaforoNet_bsp/\libucosii_bsp.a(alt_io_redirect.o)
 .comment       0x00000000       0x27 ../SemaforoNet_bsp/\libucosii_bsp.a(alt_irq_handler.o)
 .comment       0x00000000       0x27 ../SemaforoNet_bsp/\libucosii_bsp.a(alt_open.o)
 .comment       0x00000000       0x27 ../SemaforoNet_bsp/\libucosii_bsp.a(alt_read.o)
 .comment       0x00000000       0x27 ../SemaforoNet_bsp/\libucosii_bsp.a(alt_release_fd.o)
 .comment       0x00000000       0x27 ../SemaforoNet_bsp/\libucosii_bsp.a(alt_remap_cached.o)
 .comment       0x00000000       0x27 ../SemaforoNet_bsp/\libucosii_bsp.a(alt_remap_uncached.o)
 .comment       0x00000000       0x27 ../SemaforoNet_bsp/\libucosii_bsp.a(alt_tick.o)
 .comment       0x00000000       0x27 ../SemaforoNet_bsp/\libucosii_bsp.a(alt_write.o)
 .comment       0x00000000       0x27 ../SemaforoNet_bsp/\libucosii_bsp.a(altera_nios2_qsys_irq.o)
 .comment       0x00000000       0x27 ../SemaforoNet_bsp/\libucosii_bsp.a(os_cpu_c.o)
 .comment       0x00000000       0x27 ../SemaforoNet_bsp/\libucosii_bsp.a(altera_avalon_cfi_flash_amd.o)
 .comment       0x00000000       0x27 ../SemaforoNet_bsp/\libucosii_bsp.a(altera_avalon_cfi_flash_intel.o)
 .comment       0x00000000       0x27 ../SemaforoNet_bsp/\libucosii_bsp.a(altera_avalon_spi.o)
 .comment       0x00000000       0x27 ../SemaforoNet_bsp/\libucosii_bsp.a(allports.o)
 .comment       0x00000000       0x27 ../SemaforoNet_bsp/\libucosii_bsp.a(timeouts.o)
 .comment       0x00000000       0x27 ../SemaforoNet_bsp/\libucosii_bsp.a(tk_misc.o)
 .comment       0x00000000       0x27 ../SemaforoNet_bsp/\libucosii_bsp.a(alt_iniche_fcntl.o)
 .comment       0x00000000       0x27 ../SemaforoNet_bsp/\libucosii_bsp.a(et_arp.o)
 .comment       0x00000000       0x27 ../SemaforoNet_bsp/\libucosii_bsp.a(iface.o)
 .comment       0x00000000       0x27 ../SemaforoNet_bsp/\libucosii_bsp.a(ip.o)
 .comment       0x00000000       0x27 ../SemaforoNet_bsp/\libucosii_bsp.a(ip_reasm.o)
 .comment       0x00000000       0x27 ../SemaforoNet_bsp/\libucosii_bsp.a(ipdemux.o)
 .comment       0x00000000       0x27 ../SemaforoNet_bsp/\libucosii_bsp.a(ipmc.o)
 .comment       0x00000000       0x27 ../SemaforoNet_bsp/\libucosii_bsp.a(ipport.o)
 .comment       0x00000000       0x27 ../SemaforoNet_bsp/\libucosii_bsp.a(ipraw.o)
 .comment       0x00000000       0x27 ../SemaforoNet_bsp/\libucosii_bsp.a(iproute.o)
 .comment       0x00000000       0x27 ../SemaforoNet_bsp/\libucosii_bsp.a(udp.o)
 .comment       0x00000000       0x27 ../SemaforoNet_bsp/\libucosii_bsp.a(igmp.o)
 .comment       0x00000000       0x27 ../SemaforoNet_bsp/\libucosii_bsp.a(igmp2.o)
 .comment       0x00000000       0x27 ../SemaforoNet_bsp/\libucosii_bsp.a(ipopt.o)
 .comment       0x00000000       0x27 ../SemaforoNet_bsp/\libucosii_bsp.a(u_mctest.o)
 .comment       0x00000000       0x27 ../SemaforoNet_bsp/\libucosii_bsp.a(dhcsetup.o)
 .comment       0x00000000       0x27 ../SemaforoNet_bsp/\libucosii_bsp.a(memdev.o)
 .comment       0x00000000       0x27 ../SemaforoNet_bsp/\libucosii_bsp.a(tcpcksum.o)
 .comment       0x00000000       0x27 ../SemaforoNet_bsp/\libucosii_bsp.a(in_pcb.o)
 .comment       0x00000000       0x27 ../SemaforoNet_bsp/\libucosii_bsp.a(vfsfiles.o)
 .comment       0x00000000       0x27 ../SemaforoNet_bsp/\libucosii_bsp.a(vfsport.o)
 .comment       0x00000000       0x27 ../SemaforoNet_bsp/\libucosii_bsp.a(alt_fcntl.o)
 .comment       0x00000000       0x27 ../SemaforoNet_bsp/\libucosii_bsp.a(alt_find_file.o)
 .comment       0x00000000       0x27 ../SemaforoNet_bsp/\libucosii_bsp.a(alt_get_fd.o)
 .comment       0x00000000       0x27 ../SemaforoNet_bsp/\libucosii_bsp.a(icmp.o)
 .comment       0x00000000       0x27 c:/altera/13.0sp1/nios2eds/bin/gnu/h-i686-mingw32/bin/../lib/gcc/nios2-elf/4.1.2/../../../../nios2-elf/lib\libc.a(lib_a-atexit.o)
 .comment       0x00000000       0x27 c:/altera/13.0sp1/nios2eds/bin/gnu/h-i686-mingw32/bin/../lib/gcc/nios2-elf/4.1.2/../../../../nios2-elf/lib\libc.a(lib_a-atoi.o)
 .comment       0x00000000       0x27 c:/altera/13.0sp1/nios2eds/bin/gnu/h-i686-mingw32/bin/../lib/gcc/nios2-elf/4.1.2/../../../../nios2-elf/lib\libc.a(lib_a-calloc.o)
 .comment       0x00000000       0x27 c:/altera/13.0sp1/nios2eds/bin/gnu/h-i686-mingw32/bin/../lib/gcc/nios2-elf/4.1.2/../../../../nios2-elf/lib\libc.a(lib_a-memcmp.o)
 .comment       0x00000000       0x27 c:/altera/13.0sp1/nios2eds/bin/gnu/h-i686-mingw32/bin/../lib/gcc/nios2-elf/4.1.2/../../../../nios2-elf/lib\libc.a(lib_a-strcpy.o)
 .comment       0x00000000       0x27 c:/altera/13.0sp1/nios2eds/bin/gnu/h-i686-mingw32/bin/../lib/gcc/nios2-elf/4.1.2/../../../../nios2-elf/lib\libc.a(lib_a-strncmp.o)
 .comment       0x00000000       0x27 c:/altera/13.0sp1/nios2eds/bin/gnu/h-i686-mingw32/bin/../lib/gcc/nios2-elf/4.1.2/../../../../nios2-elf/lib\libc.a(lib_a-vprintf.o)
 .comment       0x00000000       0x27 c:/altera/13.0sp1/nios2eds/bin/gnu/h-i686-mingw32/bin/../lib/gcc/nios2-elf/4.1.2/../../../../nios2-elf/lib\libc.a(lib_a-vsprintf.o)
 .comment       0x00000000       0x27 c:/altera/13.0sp1/nios2eds/bin/gnu/h-i686-mingw32/bin/../lib/gcc/nios2-elf/4.1.2/../../../../nios2-elf/lib\libc.a(lib_a-__atexit.o)

.debug
 *(.debug)

.line
 *(.line)

.debug_srcinfo
 *(.debug_srcinfo)

.debug_sfnames
 *(.debug_sfnames)

.debug_aranges  0x00000000     0x1b30
 *(.debug_aranges)
 .debug_aranges
                0x00000000       0x20 ../SemaforoNet_bsp//obj/HAL/src/crt0.o
 .debug_aranges
                0x00000020       0x20 obj/default/alt_error_handler.o
 .debug_aranges
                0x00000040       0x20 obj/default/dm9000a.o
 .debug_aranges
                0x00000060       0x20 obj/default/led.o
 .debug_aranges
                0x00000080       0x20 obj/default/main.o
 .debug_aranges
                0x000000a0       0x20 obj/default/network_utilities.o
 .debug_aranges
                0x000000c0       0x20 obj/default/simple_socket_server.o
 .debug_aranges
                0x000000e0       0x20 c:/altera/13.0sp1/nios2eds/bin/gnu/h-i686-mingw32/bin/../lib/gcc/nios2-elf/4.1.2\libgcc.a(_fixunsdfsi.o)
 .debug_aranges
                0x00000100       0x20 c:/altera/13.0sp1/nios2eds/bin/gnu/h-i686-mingw32/bin/../lib/gcc/nios2-elf/4.1.2\libgcc.a(_addsub_df.o)
 .debug_aranges
                0x00000120       0x20 c:/altera/13.0sp1/nios2eds/bin/gnu/h-i686-mingw32/bin/../lib/gcc/nios2-elf/4.1.2\libgcc.a(_mul_df.o)
 .debug_aranges
                0x00000140       0x20 c:/altera/13.0sp1/nios2eds/bin/gnu/h-i686-mingw32/bin/../lib/gcc/nios2-elf/4.1.2\libgcc.a(_ge_df.o)
 .debug_aranges
                0x00000160       0x20 c:/altera/13.0sp1/nios2eds/bin/gnu/h-i686-mingw32/bin/../lib/gcc/nios2-elf/4.1.2\libgcc.a(_df_to_si.o)
 .debug_aranges
                0x00000180       0x20 c:/altera/13.0sp1/nios2eds/bin/gnu/h-i686-mingw32/bin/../lib/gcc/nios2-elf/4.1.2\libgcc.a(_usi_to_df.o)
 .debug_aranges
                0x000001a0       0x20 c:/altera/13.0sp1/nios2eds/bin/gnu/h-i686-mingw32/bin/../lib/gcc/nios2-elf/4.1.2\libgcc.a(_muldi3.o)
 .debug_aranges
                0x000001c0       0x20 c:/altera/13.0sp1/nios2eds/bin/gnu/h-i686-mingw32/bin/../lib/gcc/nios2-elf/4.1.2\libgcc.a(_clzsi2.o)
 .debug_aranges
                0x000001e0       0x20 c:/altera/13.0sp1/nios2eds/bin/gnu/h-i686-mingw32/bin/../lib/gcc/nios2-elf/4.1.2\libgcc.a(_pack_df.o)
 .debug_aranges
                0x00000200       0x20 c:/altera/13.0sp1/nios2eds/bin/gnu/h-i686-mingw32/bin/../lib/gcc/nios2-elf/4.1.2\libgcc.a(_unpack_df.o)
 .debug_aranges
                0x00000220       0x20 c:/altera/13.0sp1/nios2eds/bin/gnu/h-i686-mingw32/bin/../lib/gcc/nios2-elf/4.1.2\libgcc.a(_fpcmp_parts_df.o)
 .debug_aranges
                0x00000240       0x20 c:/altera/13.0sp1/nios2eds/bin/gnu/h-i686-mingw32/bin/../lib/gcc/nios2-elf/4.1.2/../../../../nios2-elf/lib\libc.a(lib_a-exit.o)
 .debug_aranges
                0x00000260       0x20 c:/altera/13.0sp1/nios2eds/bin/gnu/h-i686-mingw32/bin/../lib/gcc/nios2-elf/4.1.2/../../../../nios2-elf/lib\libc.a(lib_a-fprintf.o)
 .debug_aranges
                0x00000280       0x20 c:/altera/13.0sp1/nios2eds/bin/gnu/h-i686-mingw32/bin/../lib/gcc/nios2-elf/4.1.2/../../../../nios2-elf/lib\libc.a(lib_a-fwrite.o)
 .debug_aranges
                0x000002a0       0x20 c:/altera/13.0sp1/nios2eds/bin/gnu/h-i686-mingw32/bin/../lib/gcc/nios2-elf/4.1.2/../../../../nios2-elf/lib\libc.a(lib_a-getc.o)
 .debug_aranges
                0x000002c0       0x20 c:/altera/13.0sp1/nios2eds/bin/gnu/h-i686-mingw32/bin/../lib/gcc/nios2-elf/4.1.2/../../../../nios2-elf/lib\libc.a(lib_a-malloc.o)
 .debug_aranges
                0x000002e0       0x20 c:/altera/13.0sp1/nios2eds/bin/gnu/h-i686-mingw32/bin/../lib/gcc/nios2-elf/4.1.2/../../../../nios2-elf/lib\libc.a(lib_a-mallocr.o)
 .debug_aranges
                0x00000300       0x20 c:/altera/13.0sp1/nios2eds/bin/gnu/h-i686-mingw32/bin/../lib/gcc/nios2-elf/4.1.2/../../../../nios2-elf/lib\libc.a(lib_a-memcpy.o)
 .debug_aranges
                0x00000320       0x20 c:/altera/13.0sp1/nios2eds/bin/gnu/h-i686-mingw32/bin/../lib/gcc/nios2-elf/4.1.2/../../../../nios2-elf/lib\libc.a(lib_a-memmove.o)
 .debug_aranges
                0x00000340       0x20 c:/altera/13.0sp1/nios2eds/bin/gnu/h-i686-mingw32/bin/../lib/gcc/nios2-elf/4.1.2/../../../../nios2-elf/lib\libc.a(lib_a-memset.o)
 .debug_aranges
                0x00000360       0x20 c:/altera/13.0sp1/nios2eds/bin/gnu/h-i686-mingw32/bin/../lib/gcc/nios2-elf/4.1.2/../../../../nios2-elf/lib\libc.a(lib_a-perror.o)
 .debug_aranges
                0x00000380       0x20 c:/altera/13.0sp1/nios2eds/bin/gnu/h-i686-mingw32/bin/../lib/gcc/nios2-elf/4.1.2/../../../../nios2-elf/lib\libc.a(lib_a-printf.o)
 .debug_aranges
                0x000003a0       0x20 c:/altera/13.0sp1/nios2eds/bin/gnu/h-i686-mingw32/bin/../lib/gcc/nios2-elf/4.1.2/../../../../nios2-elf/lib\libc.a(lib_a-putc.o)
 .debug_aranges
                0x000003c0       0x20 c:/altera/13.0sp1/nios2eds/bin/gnu/h-i686-mingw32/bin/../lib/gcc/nios2-elf/4.1.2/../../../../nios2-elf/lib\libc.a(lib_a-putchar.o)
 .debug_aranges
                0x000003e0       0x20 c:/altera/13.0sp1/nios2eds/bin/gnu/h-i686-mingw32/bin/../lib/gcc/nios2-elf/4.1.2/../../../../nios2-elf/lib\libc.a(lib_a-puts.o)
 .debug_aranges
                0x00000400       0x20 c:/altera/13.0sp1/nios2eds/bin/gnu/h-i686-mingw32/bin/../lib/gcc/nios2-elf/4.1.2/../../../../nios2-elf/lib\libc.a(lib_a-rget.o)
 .debug_aranges
                0x00000420       0x20 c:/altera/13.0sp1/nios2eds/bin/gnu/h-i686-mingw32/bin/../lib/gcc/nios2-elf/4.1.2/../../../../nios2-elf/lib\libc.a(lib_a-sbrkr.o)
 .debug_aranges
                0x00000440       0x20 c:/altera/13.0sp1/nios2eds/bin/gnu/h-i686-mingw32/bin/../lib/gcc/nios2-elf/4.1.2/../../../../nios2-elf/lib\libc.a(lib_a-sprintf.o)
 .debug_aranges
                0x00000460       0x20 c:/altera/13.0sp1/nios2eds/bin/gnu/h-i686-mingw32/bin/../lib/gcc/nios2-elf/4.1.2/../../../../nios2-elf/lib\libc.a(lib_a-strchr.o)
 .debug_aranges
                0x00000480       0x20 c:/altera/13.0sp1/nios2eds/bin/gnu/h-i686-mingw32/bin/../lib/gcc/nios2-elf/4.1.2/../../../../nios2-elf/lib\libc.a(lib_a-strcmp.o)
 .debug_aranges
                0x000004a0       0x20 c:/altera/13.0sp1/nios2eds/bin/gnu/h-i686-mingw32/bin/../lib/gcc/nios2-elf/4.1.2/../../../../nios2-elf/lib\libc.a(lib_a-strerror.o)
 .debug_aranges
                0x000004c0       0x20 c:/altera/13.0sp1/nios2eds/bin/gnu/h-i686-mingw32/bin/../lib/gcc/nios2-elf/4.1.2/../../../../nios2-elf/lib\libc.a(lib_a-strlen.o)
 .debug_aranges
                0x000004e0       0x20 c:/altera/13.0sp1/nios2eds/bin/gnu/h-i686-mingw32/bin/../lib/gcc/nios2-elf/4.1.2/../../../../nios2-elf/lib\libc.a(lib_a-strncpy.o)
 .debug_aranges
                0x00000500       0x20 c:/altera/13.0sp1/nios2eds/bin/gnu/h-i686-mingw32/bin/../lib/gcc/nios2-elf/4.1.2/../../../../nios2-elf/lib\libc.a(lib_a-strtol.o)
 .debug_aranges
                0x00000520       0x20 c:/altera/13.0sp1/nios2eds/bin/gnu/h-i686-mingw32/bin/../lib/gcc/nios2-elf/4.1.2/../../../../nios2-elf/lib\libc.a(lib_a-u_strerr.o)
 .debug_aranges
                0x00000540       0x20 c:/altera/13.0sp1/nios2eds/bin/gnu/h-i686-mingw32/bin/../lib/gcc/nios2-elf/4.1.2/../../../../nios2-elf/lib\libc.a(lib_a-vfprintf.o)
 .debug_aranges
                0x00000560       0x20 c:/altera/13.0sp1/nios2eds/bin/gnu/h-i686-mingw32/bin/../lib/gcc/nios2-elf/4.1.2/../../../../nios2-elf/lib\libc.a(lib_a-wbuf.o)
 .debug_aranges
                0x00000580       0x20 c:/altera/13.0sp1/nios2eds/bin/gnu/h-i686-mingw32/bin/../lib/gcc/nios2-elf/4.1.2/../../../../nios2-elf/lib\libc.a(lib_a-wsetup.o)
 .debug_aranges
                0x000005a0       0x20 c:/altera/13.0sp1/nios2eds/bin/gnu/h-i686-mingw32/bin/../lib/gcc/nios2-elf/4.1.2/../../../../nios2-elf/lib\libc.a(lib_a-__call_atexit.o)
 .debug_aranges
                0x000005c0       0x20 c:/altera/13.0sp1/nios2eds/bin/gnu/h-i686-mingw32/bin/../lib/gcc/nios2-elf/4.1.2/../../../../nios2-elf/lib\libc.a(lib_a-dtoa.o)
 .debug_aranges
                0x000005e0       0x20 c:/altera/13.0sp1/nios2eds/bin/gnu/h-i686-mingw32/bin/../lib/gcc/nios2-elf/4.1.2/../../../../nios2-elf/lib\libc.a(lib_a-fflush.o)
 .debug_aranges
                0x00000600       0x20 c:/altera/13.0sp1/nios2eds/bin/gnu/h-i686-mingw32/bin/../lib/gcc/nios2-elf/4.1.2/../../../../nios2-elf/lib\libc.a(lib_a-findfp.o)
 .debug_aranges
                0x00000620       0x20 c:/altera/13.0sp1/nios2eds/bin/gnu/h-i686-mingw32/bin/../lib/gcc/nios2-elf/4.1.2/../../../../nios2-elf/lib\libc.a(lib_a-fputc.o)
 .debug_aranges
                0x00000640       0x20 c:/altera/13.0sp1/nios2eds/bin/gnu/h-i686-mingw32/bin/../lib/gcc/nios2-elf/4.1.2/../../../../nios2-elf/lib\libc.a(lib_a-fputs.o)
 .debug_aranges
                0x00000660       0x20 c:/altera/13.0sp1/nios2eds/bin/gnu/h-i686-mingw32/bin/../lib/gcc/nios2-elf/4.1.2/../../../../nios2-elf/lib\libc.a(lib_a-freer.o)
 .debug_aranges
                0x00000680       0x20 c:/altera/13.0sp1/nios2eds/bin/gnu/h-i686-mingw32/bin/../lib/gcc/nios2-elf/4.1.2/../../../../nios2-elf/lib\libc.a(lib_a-fvwrite.o)
 .debug_aranges
                0x000006a0       0x20 c:/altera/13.0sp1/nios2eds/bin/gnu/h-i686-mingw32/bin/../lib/gcc/nios2-elf/4.1.2/../../../../nios2-elf/lib\libc.a(lib_a-fwalk.o)
 .debug_aranges
                0x000006c0       0x20 c:/altera/13.0sp1/nios2eds/bin/gnu/h-i686-mingw32/bin/../lib/gcc/nios2-elf/4.1.2/../../../../nios2-elf/lib\libc.a(lib_a-locale.o)
 .debug_aranges
                0x000006e0       0x20 c:/altera/13.0sp1/nios2eds/bin/gnu/h-i686-mingw32/bin/../lib/gcc/nios2-elf/4.1.2/../../../../nios2-elf/lib\libc.a(lib_a-makebuf.o)
 .debug_aranges
                0x00000700       0x20 c:/altera/13.0sp1/nios2eds/bin/gnu/h-i686-mingw32/bin/../lib/gcc/nios2-elf/4.1.2/../../../../nios2-elf/lib\libc.a(lib_a-memchr.o)
 .debug_aranges
                0x00000720       0x20 c:/altera/13.0sp1/nios2eds/bin/gnu/h-i686-mingw32/bin/../lib/gcc/nios2-elf/4.1.2/../../../../nios2-elf/lib\libc.a(lib_a-mprec.o)
 .debug_aranges
                0x00000740       0x20 c:/altera/13.0sp1/nios2eds/bin/gnu/h-i686-mingw32/bin/../lib/gcc/nios2-elf/4.1.2/../../../../nios2-elf/lib\libc.a(lib_a-reallocr.o)
 .debug_aranges
                0x00000760       0x20 c:/altera/13.0sp1/nios2eds/bin/gnu/h-i686-mingw32/bin/../lib/gcc/nios2-elf/4.1.2/../../../../nios2-elf/lib\libc.a(lib_a-refill.o)
 .debug_aranges
                0x00000780       0x20 c:/altera/13.0sp1/nios2eds/bin/gnu/h-i686-mingw32/bin/../lib/gcc/nios2-elf/4.1.2/../../../../nios2-elf/lib\libc.a(lib_a-s_isinfd.o)
 .debug_aranges
                0x000007a0       0x20 c:/altera/13.0sp1/nios2eds/bin/gnu/h-i686-mingw32/bin/../lib/gcc/nios2-elf/4.1.2/../../../../nios2-elf/lib\libc.a(lib_a-s_isnand.o)
 .debug_aranges
                0x000007c0       0x20 c:/altera/13.0sp1/nios2eds/bin/gnu/h-i686-mingw32/bin/../lib/gcc/nios2-elf/4.1.2/../../../../nios2-elf/lib\libc.a(lib_a-stdio.o)
 .debug_aranges
                0x000007e0       0x20 c:/altera/13.0sp1/nios2eds/bin/gnu/h-i686-mingw32/bin/../lib/gcc/nios2-elf/4.1.2/../../../../nios2-elf/lib\libc.a(lib_a-writer.o)
 .debug_aranges
                0x00000800       0x20 c:/altera/13.0sp1/nios2eds/bin/gnu/h-i686-mingw32/bin/../lib/gcc/nios2-elf/4.1.2/../../../../nios2-elf/lib\libc.a(lib_a-callocr.o)
 .debug_aranges
                0x00000820       0x20 c:/altera/13.0sp1/nios2eds/bin/gnu/h-i686-mingw32/bin/../lib/gcc/nios2-elf/4.1.2/../../../../nios2-elf/lib\libc.a(lib_a-closer.o)
 .debug_aranges
                0x00000840       0x20 c:/altera/13.0sp1/nios2eds/bin/gnu/h-i686-mingw32/bin/../lib/gcc/nios2-elf/4.1.2/../../../../nios2-elf/lib\libc.a(lib_a-fclose.o)
 .debug_aranges
                0x00000860       0x20 c:/altera/13.0sp1/nios2eds/bin/gnu/h-i686-mingw32/bin/../lib/gcc/nios2-elf/4.1.2/../../../../nios2-elf/lib\libc.a(lib_a-fstatr.o)
 .debug_aranges
                0x00000880       0x20 c:/altera/13.0sp1/nios2eds/bin/gnu/h-i686-mingw32/bin/../lib/gcc/nios2-elf/4.1.2/../../../../nios2-elf/lib\libc.a(lib_a-isattyr.o)
 .debug_aranges
                0x000008a0       0x20 c:/altera/13.0sp1/nios2eds/bin/gnu/h-i686-mingw32/bin/../lib/gcc/nios2-elf/4.1.2/../../../../nios2-elf/lib\libc.a(lib_a-lseekr.o)
 .debug_aranges
                0x000008c0       0x20 c:/altera/13.0sp1/nios2eds/bin/gnu/h-i686-mingw32/bin/../lib/gcc/nios2-elf/4.1.2/../../../../nios2-elf/lib\libc.a(lib_a-readr.o)
 .debug_aranges
                0x000008e0       0x20 c:/altera/13.0sp1/nios2eds/bin/gnu/h-i686-mingw32/bin/../lib/gcc/nios2-elf/4.1.2\libgcc.a(_udivdi3.o)
 .debug_aranges
                0x00000900       0x20 c:/altera/13.0sp1/nios2eds/bin/gnu/h-i686-mingw32/bin/../lib/gcc/nios2-elf/4.1.2\libgcc.a(_umoddi3.o)
 .debug_aranges
                0x00000920       0x20 c:/altera/13.0sp1/nios2eds/bin/gnu/h-i686-mingw32/bin/../lib/gcc/nios2-elf/4.1.2\libgcc.a(_div_df.o)
 .debug_aranges
                0x00000940       0x20 c:/altera/13.0sp1/nios2eds/bin/gnu/h-i686-mingw32/bin/../lib/gcc/nios2-elf/4.1.2\libgcc.a(_eq_df.o)
 .debug_aranges
                0x00000960       0x20 c:/altera/13.0sp1/nios2eds/bin/gnu/h-i686-mingw32/bin/../lib/gcc/nios2-elf/4.1.2\libgcc.a(_ne_df.o)
 .debug_aranges
                0x00000980       0x20 c:/altera/13.0sp1/nios2eds/bin/gnu/h-i686-mingw32/bin/../lib/gcc/nios2-elf/4.1.2\libgcc.a(_gt_df.o)
 .debug_aranges
                0x000009a0       0x20 c:/altera/13.0sp1/nios2eds/bin/gnu/h-i686-mingw32/bin/../lib/gcc/nios2-elf/4.1.2\libgcc.a(_lt_df.o)
 .debug_aranges
                0x000009c0       0x20 c:/altera/13.0sp1/nios2eds/bin/gnu/h-i686-mingw32/bin/../lib/gcc/nios2-elf/4.1.2\libgcc.a(_si_to_df.o)
 .debug_aranges
                0x000009e0       0x20 c:/altera/13.0sp1/nios2eds/bin/gnu/h-i686-mingw32/bin/../lib/gcc/nios2-elf/4.1.2\libgcc.a(lib2-divmod.o)
 .debug_aranges
                0x00000a00       0x20 ../SemaforoNet_bsp/\libucosii_bsp.a(alt_exit.o)
 .debug_aranges
                0x00000a20       0x20 ../SemaforoNet_bsp/\libucosii_bsp.a(alt_flash_dev.o)
 .debug_aranges
                0x00000a40       0x20 ../SemaforoNet_bsp/\libucosii_bsp.a(alt_fstat.o)
 .debug_aranges
                0x00000a60       0x20 ../SemaforoNet_bsp/\libucosii_bsp.a(alt_irq_register.o)
 .debug_aranges
                0x00000a80       0x20 ../SemaforoNet_bsp/\libucosii_bsp.a(alt_isatty.o)
 .debug_aranges
                0x00000aa0       0x20 ../SemaforoNet_bsp/\libucosii_bsp.a(alt_lseek.o)
 .debug_aranges
                0x00000ac0       0x20 ../SemaforoNet_bsp/\libucosii_bsp.a(alt_main.o)
 .debug_aranges
                0x00000ae0       0x20 ../SemaforoNet_bsp/\libucosii_bsp.a(alt_sbrk.o)
 .debug_aranges
                0x00000b00       0x20 ../SemaforoNet_bsp/\libucosii_bsp.a(alt_usleep.o)
 .debug_aranges
                0x00000b20       0x20 ../SemaforoNet_bsp/\libucosii_bsp.a(alt_env_lock.o)
 .debug_aranges
                0x00000b40       0x20 ../SemaforoNet_bsp/\libucosii_bsp.a(alt_malloc_lock.o)
 .debug_aranges
                0x00000b60       0x20 ../SemaforoNet_bsp/\libucosii_bsp.a(os_core.o)
 .debug_aranges
                0x00000b80       0x20 ../SemaforoNet_bsp/\libucosii_bsp.a(os_dbg.o)
 .debug_aranges
                0x00000ba0       0x20 ../SemaforoNet_bsp/\libucosii_bsp.a(os_flag.o)
 .debug_aranges
                0x00000bc0       0x20 ../SemaforoNet_bsp/\libucosii_bsp.a(os_mem.o)
 .debug_aranges
                0x00000be0       0x20 ../SemaforoNet_bsp/\libucosii_bsp.a(os_q.o)
 .debug_aranges
                0x00000c00       0x20 ../SemaforoNet_bsp/\libucosii_bsp.a(os_sem.o)
 .debug_aranges
                0x00000c20       0x20 ../SemaforoNet_bsp/\libucosii_bsp.a(os_task.o)
 .debug_aranges
                0x00000c40       0x20 ../SemaforoNet_bsp/\libucosii_bsp.a(os_time.o)
 .debug_aranges
                0x00000c60       0x20 ../SemaforoNet_bsp/\libucosii_bsp.a(alt_sys_init.o)
 .debug_aranges
                0x00000c80       0x20 ../SemaforoNet_bsp/\libucosii_bsp.a(altera_avalon_cfi_flash.o)
 .debug_aranges
                0x00000ca0       0x20 ../SemaforoNet_bsp/\libucosii_bsp.a(altera_avalon_cfi_flash_table.o)
 .debug_aranges
                0x00000cc0       0x20 ../SemaforoNet_bsp/\libucosii_bsp.a(altera_avalon_epcs_flash_controller.o)
 .debug_aranges
                0x00000ce0       0x20 ../SemaforoNet_bsp/\libucosii_bsp.a(altera_avalon_jtag_uart_fd.o)
 .debug_aranges
                0x00000d00       0x20 ../SemaforoNet_bsp/\libucosii_bsp.a(altera_avalon_jtag_uart_init.o)
 .debug_aranges
                0x00000d20       0x20 ../SemaforoNet_bsp/\libucosii_bsp.a(altera_avalon_jtag_uart_ioctl.o)
 .debug_aranges
                0x00000d40       0x20 ../SemaforoNet_bsp/\libucosii_bsp.a(altera_avalon_jtag_uart_read.o)
 .debug_aranges
                0x00000d60       0x20 ../SemaforoNet_bsp/\libucosii_bsp.a(altera_avalon_jtag_uart_write.o)
 .debug_aranges
                0x00000d80       0x20 ../SemaforoNet_bsp/\libucosii_bsp.a(altera_avalon_lcd_16207.o)
 .debug_aranges
                0x00000da0       0x20 ../SemaforoNet_bsp/\libucosii_bsp.a(altera_avalon_lcd_16207_fd.o)
 .debug_aranges
                0x00000dc0       0x20 ../SemaforoNet_bsp/\libucosii_bsp.a(altera_avalon_timer_sc.o)
 .debug_aranges
                0x00000de0       0x20 ../SemaforoNet_bsp/\libucosii_bsp.a(altera_avalon_uart_fd.o)
 .debug_aranges
                0x00000e00       0x20 ../SemaforoNet_bsp/\libucosii_bsp.a(altera_avalon_uart_init.o)
 .debug_aranges
                0x00000e20       0x20 ../SemaforoNet_bsp/\libucosii_bsp.a(altera_avalon_uart_read.o)
 .debug_aranges
                0x00000e40       0x20 ../SemaforoNet_bsp/\libucosii_bsp.a(altera_avalon_uart_write.o)
 .debug_aranges
                0x00000e60       0x20 ../SemaforoNet_bsp/\libucosii_bsp.a(epcs_commands.o)
 .debug_aranges
                0x00000e80       0x20 ../SemaforoNet_bsp/\libucosii_bsp.a(alt_iniche_close.o)
 .debug_aranges
                0x00000ea0       0x20 ../SemaforoNet_bsp/\libucosii_bsp.a(alt_iniche_dev.o)
 .debug_aranges
                0x00000ec0       0x20 ../SemaforoNet_bsp/\libucosii_bsp.a(alt_iniche_read.o)
 .debug_aranges
                0x00000ee0       0x20 ../SemaforoNet_bsp/\libucosii_bsp.a(alt_iniche_write.o)
 .debug_aranges
                0x00000f00       0x20 ../SemaforoNet_bsp/\libucosii_bsp.a(ipnet.o)
 .debug_aranges
                0x00000f20       0x20 ../SemaforoNet_bsp/\libucosii_bsp.a(ipstart.o)
 .debug_aranges
                0x00000f40       0x20 ../SemaforoNet_bsp/\libucosii_bsp.a(igmp_cmn.o)
 .debug_aranges
                0x00000f60       0x20 ../SemaforoNet_bsp/\libucosii_bsp.a(bsdsock.o)
 .debug_aranges
                0x00000f80       0x20 ../SemaforoNet_bsp/\libucosii_bsp.a(cksum.o)
 .debug_aranges
                0x00000fa0       0x20 ../SemaforoNet_bsp/\libucosii_bsp.a(in_utils.o)
 .debug_aranges
                0x00000fc0       0x20 ../SemaforoNet_bsp/\libucosii_bsp.a(netmain.o)
 .debug_aranges
                0x00000fe0       0x20 ../SemaforoNet_bsp/\libucosii_bsp.a(parseip.o)
 .debug_aranges
                0x00001000       0x20 ../SemaforoNet_bsp/\libucosii_bsp.a(tk_crnos.o)
 .debug_aranges
                0x00001020       0x20 ../SemaforoNet_bsp/\libucosii_bsp.a(dhcpclnt.o)
 .debug_aranges
                0x00001040       0x20 ../SemaforoNet_bsp/\libucosii_bsp.a(dhcputil.o)
 .debug_aranges
                0x00001060       0x20 ../SemaforoNet_bsp/\libucosii_bsp.a(pktalloc.o)
 .debug_aranges
                0x00001080       0x20 ../SemaforoNet_bsp/\libucosii_bsp.a(q.o)
 .debug_aranges
                0x000010a0       0x20 ../SemaforoNet_bsp/\libucosii_bsp.a(udp_open.o)
 .debug_aranges
                0x000010c0       0x20 ../SemaforoNet_bsp/\libucosii_bsp.a(asm_cksum.o)
 .debug_aranges
                0x000010e0       0x20 ../SemaforoNet_bsp/\libucosii_bsp.a(brdutils.o)
 .debug_aranges
                0x00001100       0x20 ../SemaforoNet_bsp/\libucosii_bsp.a(osportco.o)
 .debug_aranges
                0x00001120       0x20 ../SemaforoNet_bsp/\libucosii_bsp.a(targnios.o)
 .debug_aranges
                0x00001140       0x20 ../SemaforoNet_bsp/\libucosii_bsp.a(nptcp.o)
 .debug_aranges
                0x00001160       0x20 ../SemaforoNet_bsp/\libucosii_bsp.a(rawsock.o)
 .debug_aranges
                0x00001180       0x20 ../SemaforoNet_bsp/\libucosii_bsp.a(sockcall.o)
 .debug_aranges
                0x000011a0       0x20 ../SemaforoNet_bsp/\libucosii_bsp.a(socket.o)
 .debug_aranges
                0x000011c0       0x20 ../SemaforoNet_bsp/\libucosii_bsp.a(socket2.o)
 .debug_aranges
                0x000011e0       0x20 ../SemaforoNet_bsp/\libucosii_bsp.a(soselect.o)
 .debug_aranges
                0x00001200       0x20 ../SemaforoNet_bsp/\libucosii_bsp.a(tcp_in.o)
 .debug_aranges
                0x00001220       0x20 ../SemaforoNet_bsp/\libucosii_bsp.a(tcp_out.o)
 .debug_aranges
                0x00001240       0x20 ../SemaforoNet_bsp/\libucosii_bsp.a(tcp_subr.o)
 .debug_aranges
                0x00001260       0x20 ../SemaforoNet_bsp/\libucosii_bsp.a(tcp_timr.o)
 .debug_aranges
                0x00001280       0x20 ../SemaforoNet_bsp/\libucosii_bsp.a(tcp_usr.o)
 .debug_aranges
                0x000012a0       0x20 ../SemaforoNet_bsp/\libucosii_bsp.a(tcpport.o)
 .debug_aranges
                0x000012c0       0x20 ../SemaforoNet_bsp/\libucosii_bsp.a(udpsock.o)
 .debug_aranges
                0x000012e0       0x20 ../SemaforoNet_bsp/\libucosii_bsp.a(alt_alarm_start.o)
 .debug_aranges
                0x00001300       0x20 ../SemaforoNet_bsp/\libucosii_bsp.a(alt_busy_sleep.o)
 .debug_aranges
                0x00001320       0x20 ../SemaforoNet_bsp/\libucosii_bsp.a(alt_close.o)
 .debug_aranges
                0x00001340       0x20 ../SemaforoNet_bsp/\libucosii_bsp.a(alt_dcache_flush.o)
 .debug_aranges
                0x00001360       0x20 ../SemaforoNet_bsp/\libucosii_bsp.a(alt_dev.o)
 .debug_aranges
                0x00001380       0x20 ../SemaforoNet_bsp/\libucosii_bsp.a(alt_dev_llist_insert.o)
 .debug_aranges
                0x000013a0       0x20 ../SemaforoNet_bsp/\libucosii_bsp.a(alt_do_ctors.o)
 .debug_aranges
                0x000013c0       0x20 ../SemaforoNet_bsp/\libucosii_bsp.a(alt_do_dtors.o)
 .debug_aranges
                0x000013e0       0x20 ../SemaforoNet_bsp/\libucosii_bsp.a(alt_find_dev.o)
 .debug_aranges
                0x00001400       0x20 ../SemaforoNet_bsp/\libucosii_bsp.a(alt_iic.o)
 .debug_aranges
                0x00001420       0x20 ../SemaforoNet_bsp/\libucosii_bsp.a(alt_iic_isr_register.o)
 .debug_aranges
                0x00001440       0x20 ../SemaforoNet_bsp/\libucosii_bsp.a(alt_io_redirect.o)
 .debug_aranges
                0x00001460       0x30 ../SemaforoNet_bsp/\libucosii_bsp.a(alt_irq_entry.o)
 .debug_aranges
                0x00001490       0x28 ../SemaforoNet_bsp/\libucosii_bsp.a(alt_irq_handler.o)
 .debug_aranges
                0x000014b8       0x20 ../SemaforoNet_bsp/\libucosii_bsp.a(alt_open.o)
 .debug_aranges
                0x000014d8       0x20 ../SemaforoNet_bsp/\libucosii_bsp.a(alt_read.o)
 .debug_aranges
                0x000014f8       0x20 ../SemaforoNet_bsp/\libucosii_bsp.a(alt_release_fd.o)
 .debug_aranges
                0x00001518       0x20 ../SemaforoNet_bsp/\libucosii_bsp.a(alt_remap_cached.o)
 .debug_aranges
                0x00001538       0x20 ../SemaforoNet_bsp/\libucosii_bsp.a(alt_remap_uncached.o)
 .debug_aranges
                0x00001558       0x20 ../SemaforoNet_bsp/\libucosii_bsp.a(alt_tick.o)
 .debug_aranges
                0x00001578       0x20 ../SemaforoNet_bsp/\libucosii_bsp.a(alt_write.o)
 .debug_aranges
                0x00001598       0x20 ../SemaforoNet_bsp/\libucosii_bsp.a(altera_nios2_qsys_irq.o)
 .debug_aranges
                0x000015b8       0x20 ../SemaforoNet_bsp/\libucosii_bsp.a(os_cpu_a.o)
 .debug_aranges
                0x000015d8       0x20 ../SemaforoNet_bsp/\libucosii_bsp.a(os_cpu_c.o)
 .debug_aranges
                0x000015f8       0x20 ../SemaforoNet_bsp/\libucosii_bsp.a(altera_avalon_cfi_flash_amd.o)
 .debug_aranges
                0x00001618       0x20 ../SemaforoNet_bsp/\libucosii_bsp.a(altera_avalon_cfi_flash_intel.o)
 .debug_aranges
                0x00001638       0x20 ../SemaforoNet_bsp/\libucosii_bsp.a(altera_avalon_spi.o)
 .debug_aranges
                0x00001658       0x20 ../SemaforoNet_bsp/\libucosii_bsp.a(allports.o)
 .debug_aranges
                0x00001678       0x20 ../SemaforoNet_bsp/\libucosii_bsp.a(timeouts.o)
 .debug_aranges
                0x00001698       0x20 ../SemaforoNet_bsp/\libucosii_bsp.a(tk_misc.o)
 .debug_aranges
                0x000016b8       0x20 ../SemaforoNet_bsp/\libucosii_bsp.a(alt_iniche_fcntl.o)
 .debug_aranges
                0x000016d8       0x20 ../SemaforoNet_bsp/\libucosii_bsp.a(et_arp.o)
 .debug_aranges
                0x000016f8       0x20 ../SemaforoNet_bsp/\libucosii_bsp.a(iface.o)
 .debug_aranges
                0x00001718       0x20 ../SemaforoNet_bsp/\libucosii_bsp.a(ip.o)
 .debug_aranges
                0x00001738       0x20 ../SemaforoNet_bsp/\libucosii_bsp.a(ip_reasm.o)
 .debug_aranges
                0x00001758       0x20 ../SemaforoNet_bsp/\libucosii_bsp.a(ipdemux.o)
 .debug_aranges
                0x00001778       0x20 ../SemaforoNet_bsp/\libucosii_bsp.a(ipmc.o)
 .debug_aranges
                0x00001798       0x20 ../SemaforoNet_bsp/\libucosii_bsp.a(ipport.o)
 .debug_aranges
                0x000017b8       0x20 ../SemaforoNet_bsp/\libucosii_bsp.a(ipraw.o)
 .debug_aranges
                0x000017d8       0x20 ../SemaforoNet_bsp/\libucosii_bsp.a(iproute.o)
 .debug_aranges
                0x000017f8       0x20 ../SemaforoNet_bsp/\libucosii_bsp.a(udp.o)
 .debug_aranges
                0x00001818       0x20 ../SemaforoNet_bsp/\libucosii_bsp.a(igmp.o)
 .debug_aranges
                0x00001838       0x20 ../SemaforoNet_bsp/\libucosii_bsp.a(igmp2.o)
 .debug_aranges
                0x00001858       0x20 ../SemaforoNet_bsp/\libucosii_bsp.a(ipopt.o)
 .debug_aranges
                0x00001878       0x20 ../SemaforoNet_bsp/\libucosii_bsp.a(u_mctest.o)
 .debug_aranges
                0x00001898       0x20 ../SemaforoNet_bsp/\libucosii_bsp.a(dhcsetup.o)
 .debug_aranges
                0x000018b8       0x20 ../SemaforoNet_bsp/\libucosii_bsp.a(memdev.o)
 .debug_aranges
                0x000018d8       0x20 ../SemaforoNet_bsp/\libucosii_bsp.a(tcpcksum.o)
 .debug_aranges
                0x000018f8       0x20 ../SemaforoNet_bsp/\libucosii_bsp.a(in_pcb.o)
 .debug_aranges
                0x00001918       0x20 ../SemaforoNet_bsp/\libucosii_bsp.a(vfsfiles.o)
 .debug_aranges
                0x00001938       0x20 ../SemaforoNet_bsp/\libucosii_bsp.a(vfsport.o)
 .debug_aranges
                0x00001958       0x38 ../SemaforoNet_bsp/\libucosii_bsp.a(alt_exception_entry.o)
 .debug_aranges
                0x00001990       0x20 ../SemaforoNet_bsp/\libucosii_bsp.a(alt_fcntl.o)
 .debug_aranges
                0x000019b0       0x20 ../SemaforoNet_bsp/\libucosii_bsp.a(alt_find_file.o)
 .debug_aranges
                0x000019d0       0x20 ../SemaforoNet_bsp/\libucosii_bsp.a(alt_get_fd.o)
 .debug_aranges
                0x000019f0       0x20 ../SemaforoNet_bsp/\libucosii_bsp.a(icmp.o)
 .debug_aranges
                0x00001a10       0x20 c:/altera/13.0sp1/nios2eds/bin/gnu/h-i686-mingw32/bin/../lib/gcc/nios2-elf/4.1.2/../../../../nios2-elf/lib\libc.a(lib_a-atexit.o)
 .debug_aranges
                0x00001a30       0x20 c:/altera/13.0sp1/nios2eds/bin/gnu/h-i686-mingw32/bin/../lib/gcc/nios2-elf/4.1.2/../../../../nios2-elf/lib\libc.a(lib_a-atoi.o)
 .debug_aranges
                0x00001a50       0x20 c:/altera/13.0sp1/nios2eds/bin/gnu/h-i686-mingw32/bin/../lib/gcc/nios2-elf/4.1.2/../../../../nios2-elf/lib\libc.a(lib_a-calloc.o)
 .debug_aranges
                0x00001a70       0x20 c:/altera/13.0sp1/nios2eds/bin/gnu/h-i686-mingw32/bin/../lib/gcc/nios2-elf/4.1.2/../../../../nios2-elf/lib\libc.a(lib_a-memcmp.o)
 .debug_aranges
                0x00001a90       0x20 c:/altera/13.0sp1/nios2eds/bin/gnu/h-i686-mingw32/bin/../lib/gcc/nios2-elf/4.1.2/../../../../nios2-elf/lib\libc.a(lib_a-strcpy.o)
 .debug_aranges
                0x00001ab0       0x20 c:/altera/13.0sp1/nios2eds/bin/gnu/h-i686-mingw32/bin/../lib/gcc/nios2-elf/4.1.2/../../../../nios2-elf/lib\libc.a(lib_a-strncmp.o)
 .debug_aranges
                0x00001ad0       0x20 c:/altera/13.0sp1/nios2eds/bin/gnu/h-i686-mingw32/bin/../lib/gcc/nios2-elf/4.1.2/../../../../nios2-elf/lib\libc.a(lib_a-vprintf.o)
 .debug_aranges
                0x00001af0       0x20 c:/altera/13.0sp1/nios2eds/bin/gnu/h-i686-mingw32/bin/../lib/gcc/nios2-elf/4.1.2/../../../../nios2-elf/lib\libc.a(lib_a-vsprintf.o)
 .debug_aranges
                0x00001b10       0x20 c:/altera/13.0sp1/nios2eds/bin/gnu/h-i686-mingw32/bin/../lib/gcc/nios2-elf/4.1.2/../../../../nios2-elf/lib\libc.a(lib_a-__atexit.o)

.debug_pubnames
                0x00000000     0x5510
 *(.debug_pubnames)
 .debug_pubnames
                0x00000000       0x61 obj/default/alt_error_handler.o
 .debug_pubnames
                0x00000061      0x102 obj/default/dm9000a.o
 .debug_pubnames
                0x00000163       0x54 obj/default/led.o
 .debug_pubnames
                0x000001b7       0x6b obj/default/main.o
 .debug_pubnames
                0x00000222       0xe7 obj/default/network_utilities.o
 .debug_pubnames
                0x00000309      0x154 obj/default/simple_socket_server.o
 .debug_pubnames
                0x0000045d       0x23 c:/altera/13.0sp1/nios2eds/bin/gnu/h-i686-mingw32/bin/../lib/gcc/nios2-elf/4.1.2\libgcc.a(_fixunsdfsi.o)
 .debug_pubnames
                0x00000480       0x2c c:/altera/13.0sp1/nios2eds/bin/gnu/h-i686-mingw32/bin/../lib/gcc/nios2-elf/4.1.2\libgcc.a(_addsub_df.o)
 .debug_pubnames
                0x000004ac       0x1f c:/altera/13.0sp1/nios2eds/bin/gnu/h-i686-mingw32/bin/../lib/gcc/nios2-elf/4.1.2\libgcc.a(_mul_df.o)
 .debug_pubnames
                0x000004cb       0x1e c:/altera/13.0sp1/nios2eds/bin/gnu/h-i686-mingw32/bin/../lib/gcc/nios2-elf/4.1.2\libgcc.a(_ge_df.o)
 .debug_pubnames
                0x000004e9       0x20 c:/altera/13.0sp1/nios2eds/bin/gnu/h-i686-mingw32/bin/../lib/gcc/nios2-elf/4.1.2\libgcc.a(_df_to_si.o)
 .debug_pubnames
                0x00000509       0x22 c:/altera/13.0sp1/nios2eds/bin/gnu/h-i686-mingw32/bin/../lib/gcc/nios2-elf/4.1.2\libgcc.a(_thenan_df.o)
 .debug_pubnames
                0x0000052b       0x24 c:/altera/13.0sp1/nios2eds/bin/gnu/h-i686-mingw32/bin/../lib/gcc/nios2-elf/4.1.2\libgcc.a(_usi_to_df.o)
 .debug_pubnames
                0x0000054f       0x1f c:/altera/13.0sp1/nios2eds/bin/gnu/h-i686-mingw32/bin/../lib/gcc/nios2-elf/4.1.2\libgcc.a(_muldi3.o)
 .debug_pubnames
                0x0000056e       0x1f c:/altera/13.0sp1/nios2eds/bin/gnu/h-i686-mingw32/bin/../lib/gcc/nios2-elf/4.1.2\libgcc.a(_clzsi2.o)
 .debug_pubnames
                0x0000058d       0x1f c:/altera/13.0sp1/nios2eds/bin/gnu/h-i686-mingw32/bin/../lib/gcc/nios2-elf/4.1.2\libgcc.a(_pack_df.o)
 .debug_pubnames
                0x000005ac       0x21 c:/altera/13.0sp1/nios2eds/bin/gnu/h-i686-mingw32/bin/../lib/gcc/nios2-elf/4.1.2\libgcc.a(_unpack_df.o)
 .debug_pubnames
                0x000005cd       0x26 c:/altera/13.0sp1/nios2eds/bin/gnu/h-i686-mingw32/bin/../lib/gcc/nios2-elf/4.1.2\libgcc.a(_fpcmp_parts_df.o)
 .debug_pubnames
                0x000005f3       0x20 c:/altera/13.0sp1/nios2eds/bin/gnu/h-i686-mingw32/bin/../lib/gcc/nios2-elf/4.1.2\libgcc.a(_clz.o)
 .debug_pubnames
                0x00000613       0x2e c:/altera/13.0sp1/nios2eds/bin/gnu/h-i686-mingw32/bin/../lib/gcc/nios2-elf/4.1.2/../../../../nios2-elf/lib\libc.a(lib_a-ctype_.o)
 .debug_pubnames
                0x00000641       0x1b c:/altera/13.0sp1/nios2eds/bin/gnu/h-i686-mingw32/bin/../lib/gcc/nios2-elf/4.1.2/../../../../nios2-elf/lib\libc.a(lib_a-exit.o)
 .debug_pubnames
                0x0000065c       0x2d c:/altera/13.0sp1/nios2eds/bin/gnu/h-i686-mingw32/bin/../lib/gcc/nios2-elf/4.1.2/../../../../nios2-elf/lib\libc.a(lib_a-fprintf.o)
 .debug_pubnames
                0x00000689       0x2b c:/altera/13.0sp1/nios2eds/bin/gnu/h-i686-mingw32/bin/../lib/gcc/nios2-elf/4.1.2/../../../../nios2-elf/lib\libc.a(lib_a-fwrite.o)
 .debug_pubnames
                0x000006b4       0x27 c:/altera/13.0sp1/nios2eds/bin/gnu/h-i686-mingw32/bin/../lib/gcc/nios2-elf/4.1.2/../../../../nios2-elf/lib\libc.a(lib_a-getc.o)
 .debug_pubnames
                0x000006db       0x39 c:/altera/13.0sp1/nios2eds/bin/gnu/h-i686-mingw32/bin/../lib/gcc/nios2-elf/4.1.2/../../../../nios2-elf/lib\libc.a(lib_a-impure.o)
 .debug_pubnames
                0x00000714       0x26 c:/altera/13.0sp1/nios2eds/bin/gnu/h-i686-mingw32/bin/../lib/gcc/nios2-elf/4.1.2/../../../../nios2-elf/lib\libc.a(lib_a-malloc.o)
 .debug_pubnames
                0x0000073a       0xce c:/altera/13.0sp1/nios2eds/bin/gnu/h-i686-mingw32/bin/../lib/gcc/nios2-elf/4.1.2/../../../../nios2-elf/lib\libc.a(lib_a-mallocr.o)
 .debug_pubnames
                0x00000808       0x1d c:/altera/13.0sp1/nios2eds/bin/gnu/h-i686-mingw32/bin/../lib/gcc/nios2-elf/4.1.2/../../../../nios2-elf/lib\libc.a(lib_a-memcpy.o)
 .debug_pubnames
                0x00000825       0x1e c:/altera/13.0sp1/nios2eds/bin/gnu/h-i686-mingw32/bin/../lib/gcc/nios2-elf/4.1.2/../../../../nios2-elf/lib\libc.a(lib_a-memmove.o)
 .debug_pubnames
                0x00000843       0x1d c:/altera/13.0sp1/nios2eds/bin/gnu/h-i686-mingw32/bin/../lib/gcc/nios2-elf/4.1.2/../../../../nios2-elf/lib\libc.a(lib_a-memset.o)
 .debug_pubnames
                0x00000860       0x2b c:/altera/13.0sp1/nios2eds/bin/gnu/h-i686-mingw32/bin/../lib/gcc/nios2-elf/4.1.2/../../../../nios2-elf/lib\libc.a(lib_a-perror.o)
 .debug_pubnames
                0x0000088b       0x2b c:/altera/13.0sp1/nios2eds/bin/gnu/h-i686-mingw32/bin/../lib/gcc/nios2-elf/4.1.2/../../../../nios2-elf/lib\libc.a(lib_a-printf.o)
 .debug_pubnames
                0x000008b6       0x27 c:/altera/13.0sp1/nios2eds/bin/gnu/h-i686-mingw32/bin/../lib/gcc/nios2-elf/4.1.2/../../../../nios2-elf/lib\libc.a(lib_a-putc.o)
 .debug_pubnames
                0x000008dd       0x2d c:/altera/13.0sp1/nios2eds/bin/gnu/h-i686-mingw32/bin/../lib/gcc/nios2-elf/4.1.2/../../../../nios2-elf/lib\libc.a(lib_a-putchar.o)
 .debug_pubnames
                0x0000090a       0x27 c:/altera/13.0sp1/nios2eds/bin/gnu/h-i686-mingw32/bin/../lib/gcc/nios2-elf/4.1.2/../../../../nios2-elf/lib\libc.a(lib_a-puts.o)
 .debug_pubnames
                0x00000931       0x2c c:/altera/13.0sp1/nios2eds/bin/gnu/h-i686-mingw32/bin/../lib/gcc/nios2-elf/4.1.2/../../../../nios2-elf/lib\libc.a(lib_a-rget.o)
 .debug_pubnames
                0x0000095d       0x1e c:/altera/13.0sp1/nios2eds/bin/gnu/h-i686-mingw32/bin/../lib/gcc/nios2-elf/4.1.2/../../../../nios2-elf/lib\libc.a(lib_a-sbrkr.o)
 .debug_pubnames
                0x0000097b       0x2d c:/altera/13.0sp1/nios2eds/bin/gnu/h-i686-mingw32/bin/../lib/gcc/nios2-elf/4.1.2/../../../../nios2-elf/lib\libc.a(lib_a-sprintf.o)
 .debug_pubnames
                0x000009a8       0x1d c:/altera/13.0sp1/nios2eds/bin/gnu/h-i686-mingw32/bin/../lib/gcc/nios2-elf/4.1.2/../../../../nios2-elf/lib\libc.a(lib_a-strchr.o)
 .debug_pubnames
                0x000009c5       0x1d c:/altera/13.0sp1/nios2eds/bin/gnu/h-i686-mingw32/bin/../lib/gcc/nios2-elf/4.1.2/../../../../nios2-elf/lib\libc.a(lib_a-strcmp.o)
 .debug_pubnames
                0x000009e2       0x1f c:/altera/13.0sp1/nios2eds/bin/gnu/h-i686-mingw32/bin/../lib/gcc/nios2-elf/4.1.2/../../../../nios2-elf/lib\libc.a(lib_a-strerror.o)
 .debug_pubnames
                0x00000a01       0x1d c:/altera/13.0sp1/nios2eds/bin/gnu/h-i686-mingw32/bin/../lib/gcc/nios2-elf/4.1.2/../../../../nios2-elf/lib\libc.a(lib_a-strlen.o)
 .debug_pubnames
                0x00000a1e       0x1e c:/altera/13.0sp1/nios2eds/bin/gnu/h-i686-mingw32/bin/../lib/gcc/nios2-elf/4.1.2/../../../../nios2-elf/lib\libc.a(lib_a-strncpy.o)
 .debug_pubnames
                0x00000a3c       0x2b c:/altera/13.0sp1/nios2eds/bin/gnu/h-i686-mingw32/bin/../lib/gcc/nios2-elf/4.1.2/../../../../nios2-elf/lib\libc.a(lib_a-strtol.o)
 .debug_pubnames
                0x00000a67       0x25 c:/altera/13.0sp1/nios2eds/bin/gnu/h-i686-mingw32/bin/../lib/gcc/nios2-elf/4.1.2/../../../../nios2-elf/lib\libc.a(lib_a-u_strerr.o)
 .debug_pubnames
                0x00000a8c       0x45 c:/altera/13.0sp1/nios2eds/bin/gnu/h-i686-mingw32/bin/../lib/gcc/nios2-elf/4.1.2/../../../../nios2-elf/lib\libc.a(lib_a-vfprintf.o)
 .debug_pubnames
                0x00000ad1       0x2c c:/altera/13.0sp1/nios2eds/bin/gnu/h-i686-mingw32/bin/../lib/gcc/nios2-elf/4.1.2/../../../../nios2-elf/lib\libc.a(lib_a-wbuf.o)
 .debug_pubnames
                0x00000afd       0x22 c:/altera/13.0sp1/nios2eds/bin/gnu/h-i686-mingw32/bin/../lib/gcc/nios2-elf/4.1.2/../../../../nios2-elf/lib\libc.a(lib_a-wsetup.o)
 .debug_pubnames
                0x00000b1f       0x27 c:/altera/13.0sp1/nios2eds/bin/gnu/h-i686-mingw32/bin/../lib/gcc/nios2-elf/4.1.2/../../../../nios2-elf/lib\libc.a(lib_a-__call_atexit.o)
 .debug_pubnames
                0x00000b46       0x1e c:/altera/13.0sp1/nios2eds/bin/gnu/h-i686-mingw32/bin/../lib/gcc/nios2-elf/4.1.2/../../../../nios2-elf/lib\libc.a(lib_a-dtoa.o)
 .debug_pubnames
                0x00000b64       0x2b c:/altera/13.0sp1/nios2eds/bin/gnu/h-i686-mingw32/bin/../lib/gcc/nios2-elf/4.1.2/../../../../nios2-elf/lib\libc.a(lib_a-fflush.o)
 .debug_pubnames
                0x00000b8f       0xdb c:/altera/13.0sp1/nios2eds/bin/gnu/h-i686-mingw32/bin/../lib/gcc/nios2-elf/4.1.2/../../../../nios2-elf/lib\libc.a(lib_a-findfp.o)
 .debug_pubnames
                0x00000c6a       0x29 c:/altera/13.0sp1/nios2eds/bin/gnu/h-i686-mingw32/bin/../lib/gcc/nios2-elf/4.1.2/../../../../nios2-elf/lib\libc.a(lib_a-fputc.o)
 .debug_pubnames
                0x00000c93       0x29 c:/altera/13.0sp1/nios2eds/bin/gnu/h-i686-mingw32/bin/../lib/gcc/nios2-elf/4.1.2/../../../../nios2-elf/lib\libc.a(lib_a-fputs.o)
 .debug_pubnames
                0x00000cbc       0x31 c:/altera/13.0sp1/nios2eds/bin/gnu/h-i686-mingw32/bin/../lib/gcc/nios2-elf/4.1.2/../../../../nios2-elf/lib\libc.a(lib_a-freer.o)
 .debug_pubnames
                0x00000ced       0x23 c:/altera/13.0sp1/nios2eds/bin/gnu/h-i686-mingw32/bin/../lib/gcc/nios2-elf/4.1.2/../../../../nios2-elf/lib\libc.a(lib_a-fvwrite.o)
 .debug_pubnames
                0x00000d10       0x2e c:/altera/13.0sp1/nios2eds/bin/gnu/h-i686-mingw32/bin/../lib/gcc/nios2-elf/4.1.2/../../../../nios2-elf/lib\libc.a(lib_a-fwalk.o)
 .debug_pubnames
                0x00000d3e       0x1c c:/altera/13.0sp1/nios2eds/bin/gnu/h-i686-mingw32/bin/../lib/gcc/nios2-elf/4.1.2/../../../../nios2-elf/lib\libc.a(lib_a-int_errno.o)
 .debug_pubnames
                0x00000d5a       0xc3 c:/altera/13.0sp1/nios2eds/bin/gnu/h-i686-mingw32/bin/../lib/gcc/nios2-elf/4.1.2/../../../../nios2-elf/lib\libc.a(lib_a-locale.o)
 .debug_pubnames
                0x00000e1d       0x23 c:/altera/13.0sp1/nios2eds/bin/gnu/h-i686-mingw32/bin/../lib/gcc/nios2-elf/4.1.2/../../../../nios2-elf/lib\libc.a(lib_a-makebuf.o)
 .debug_pubnames
                0x00000e40       0x1d c:/altera/13.0sp1/nios2eds/bin/gnu/h-i686-mingw32/bin/../lib/gcc/nios2-elf/4.1.2/../../../../nios2-elf/lib\libc.a(lib_a-memchr.o)
 .debug_pubnames
                0x00000e5d      0x13a c:/altera/13.0sp1/nios2eds/bin/gnu/h-i686-mingw32/bin/../lib/gcc/nios2-elf/4.1.2/../../../../nios2-elf/lib\libc.a(lib_a-mprec.o)
 .debug_pubnames
                0x00000f97       0x21 c:/altera/13.0sp1/nios2eds/bin/gnu/h-i686-mingw32/bin/../lib/gcc/nios2-elf/4.1.2/../../../../nios2-elf/lib\libc.a(lib_a-reallocr.o)
 .debug_pubnames
                0x00000fb8       0x22 c:/altera/13.0sp1/nios2eds/bin/gnu/h-i686-mingw32/bin/../lib/gcc/nios2-elf/4.1.2/../../../../nios2-elf/lib\libc.a(lib_a-refill.o)
 .debug_pubnames
                0x00000fda       0x1f c:/altera/13.0sp1/nios2eds/bin/gnu/h-i686-mingw32/bin/../lib/gcc/nios2-elf/4.1.2/../../../../nios2-elf/lib\libc.a(lib_a-s_isinfd.o)
 .debug_pubnames
                0x00000ff9       0x1f c:/altera/13.0sp1/nios2eds/bin/gnu/h-i686-mingw32/bin/../lib/gcc/nios2-elf/4.1.2/../../../../nios2-elf/lib\libc.a(lib_a-s_isnand.o)
 .debug_pubnames
                0x00001018       0x44 c:/altera/13.0sp1/nios2eds/bin/gnu/h-i686-mingw32/bin/../lib/gcc/nios2-elf/4.1.2/../../../../nios2-elf/lib\libc.a(lib_a-stdio.o)
 .debug_pubnames
                0x0000105c       0x1f c:/altera/13.0sp1/nios2eds/bin/gnu/h-i686-mingw32/bin/../lib/gcc/nios2-elf/4.1.2/../../../../nios2-elf/lib\libc.a(lib_a-writer.o)
 .debug_pubnames
                0x0000107b       0x20 c:/altera/13.0sp1/nios2eds/bin/gnu/h-i686-mingw32/bin/../lib/gcc/nios2-elf/4.1.2/../../../../nios2-elf/lib\libc.a(lib_a-callocr.o)
 .debug_pubnames
                0x0000109b       0x1f c:/altera/13.0sp1/nios2eds/bin/gnu/h-i686-mingw32/bin/../lib/gcc/nios2-elf/4.1.2/../../../../nios2-elf/lib\libc.a(lib_a-closer.o)
 .debug_pubnames
                0x000010ba       0x2b c:/altera/13.0sp1/nios2eds/bin/gnu/h-i686-mingw32/bin/../lib/gcc/nios2-elf/4.1.2/../../../../nios2-elf/lib\libc.a(lib_a-fclose.o)
 .debug_pubnames
                0x000010e5       0x1f c:/altera/13.0sp1/nios2eds/bin/gnu/h-i686-mingw32/bin/../lib/gcc/nios2-elf/4.1.2/../../../../nios2-elf/lib\libc.a(lib_a-fstatr.o)
 .debug_pubnames
                0x00001104       0x20 c:/altera/13.0sp1/nios2eds/bin/gnu/h-i686-mingw32/bin/../lib/gcc/nios2-elf/4.1.2/../../../../nios2-elf/lib\libc.a(lib_a-isattyr.o)
 .debug_pubnames
                0x00001124       0x1f c:/altera/13.0sp1/nios2eds/bin/gnu/h-i686-mingw32/bin/../lib/gcc/nios2-elf/4.1.2/../../../../nios2-elf/lib\libc.a(lib_a-lseekr.o)
 .debug_pubnames
                0x00001143       0x1e c:/altera/13.0sp1/nios2eds/bin/gnu/h-i686-mingw32/bin/../lib/gcc/nios2-elf/4.1.2/../../../../nios2-elf/lib\libc.a(lib_a-readr.o)
 .debug_pubnames
                0x00001161       0x20 c:/altera/13.0sp1/nios2eds/bin/gnu/h-i686-mingw32/bin/../lib/gcc/nios2-elf/4.1.2\libgcc.a(_udivdi3.o)
 .debug_pubnames
                0x00001181       0x20 c:/altera/13.0sp1/nios2eds/bin/gnu/h-i686-mingw32/bin/../lib/gcc/nios2-elf/4.1.2\libgcc.a(_umoddi3.o)
 .debug_pubnames
                0x000011a1       0x1f c:/altera/13.0sp1/nios2eds/bin/gnu/h-i686-mingw32/bin/../lib/gcc/nios2-elf/4.1.2\libgcc.a(_div_df.o)
 .debug_pubnames
                0x000011c0       0x1e c:/altera/13.0sp1/nios2eds/bin/gnu/h-i686-mingw32/bin/../lib/gcc/nios2-elf/4.1.2\libgcc.a(_eq_df.o)
 .debug_pubnames
                0x000011de       0x1e c:/altera/13.0sp1/nios2eds/bin/gnu/h-i686-mingw32/bin/../lib/gcc/nios2-elf/4.1.2\libgcc.a(_ne_df.o)
 .debug_pubnames
                0x000011fc       0x1e c:/altera/13.0sp1/nios2eds/bin/gnu/h-i686-mingw32/bin/../lib/gcc/nios2-elf/4.1.2\libgcc.a(_gt_df.o)
 .debug_pubnames
                0x0000121a       0x1e c:/altera/13.0sp1/nios2eds/bin/gnu/h-i686-mingw32/bin/../lib/gcc/nios2-elf/4.1.2\libgcc.a(_lt_df.o)
 .debug_pubnames
                0x00001238       0x22 c:/altera/13.0sp1/nios2eds/bin/gnu/h-i686-mingw32/bin/../lib/gcc/nios2-elf/4.1.2\libgcc.a(_si_to_df.o)
 .debug_pubnames
                0x0000125a       0x48 c:/altera/13.0sp1/nios2eds/bin/gnu/h-i686-mingw32/bin/../lib/gcc/nios2-elf/4.1.2\libgcc.a(lib2-divmod.o)
 .debug_pubnames
                0x000012a2       0x1c ../SemaforoNet_bsp/\libucosii_bsp.a(alt_exit.o)
 .debug_pubnames
                0x000012be       0x58 ../SemaforoNet_bsp/\libucosii_bsp.a(alt_flash_dev.o)
 .debug_pubnames
                0x00001316       0x1c ../SemaforoNet_bsp/\libucosii_bsp.a(alt_fstat.o)
 .debug_pubnames
                0x00001332       0x27 ../SemaforoNet_bsp/\libucosii_bsp.a(alt_irq_register.o)
 .debug_pubnames
                0x00001359       0x3b ../SemaforoNet_bsp/\libucosii_bsp.a(alt_irq_vars.o)
 .debug_pubnames
                0x00001394       0x1d ../SemaforoNet_bsp/\libucosii_bsp.a(alt_isatty.o)
 .debug_pubnames
                0x000013b1       0x1c ../SemaforoNet_bsp/\libucosii_bsp.a(alt_lseek.o)
 .debug_pubnames
                0x000013cd       0x46 ../SemaforoNet_bsp/\libucosii_bsp.a(alt_main.o)
 .debug_pubnames
                0x00001413       0x1b ../SemaforoNet_bsp/\libucosii_bsp.a(alt_sbrk.o)
 .debug_pubnames
                0x0000142e       0x1d ../SemaforoNet_bsp/\libucosii_bsp.a(alt_usleep.o)
 .debug_pubnames
                0x0000144b       0x41 ../SemaforoNet_bsp/\libucosii_bsp.a(alt_env_lock.o)
 .debug_pubnames
                0x0000148c       0x48 ../SemaforoNet_bsp/\libucosii_bsp.a(alt_malloc_lock.o)
 .debug_pubnames
                0x000014d4      0x3f8 ../SemaforoNet_bsp/\libucosii_bsp.a(os_core.o)
 .debug_pubnames
                0x000018cc      0x3c5 ../SemaforoNet_bsp/\libucosii_bsp.a(os_dbg.o)
 .debug_pubnames
                0x00001c91       0xd0 ../SemaforoNet_bsp/\libucosii_bsp.a(os_flag.o)
 .debug_pubnames
                0x00001d61       0x7c ../SemaforoNet_bsp/\libucosii_bsp.a(os_mem.o)
 .debug_pubnames
                0x00001ddd       0xa9 ../SemaforoNet_bsp/\libucosii_bsp.a(os_q.o)
 .debug_pubnames
                0x00001e86       0x8a ../SemaforoNet_bsp/\libucosii_bsp.a(os_sem.o)
 .debug_pubnames
                0x00001f10       0xe5 ../SemaforoNet_bsp/\libucosii_bsp.a(os_task.o)
 .debug_pubnames
                0x00001ff5       0x62 ../SemaforoNet_bsp/\libucosii_bsp.a(os_time.o)
 .debug_pubnames
                0x00002057       0x34 ../SemaforoNet_bsp/\libucosii_bsp.a(alt_sys_init.o)
 .debug_pubnames
                0x0000208b       0xac ../SemaforoNet_bsp/\libucosii_bsp.a(altera_avalon_cfi_flash.o)
 .debug_pubnames
                0x00002137      0x27a ../SemaforoNet_bsp/\libucosii_bsp.a(altera_avalon_cfi_flash_table.o)
 .debug_pubnames
                0x000023b1       0xb5 ../SemaforoNet_bsp/\libucosii_bsp.a(altera_avalon_epcs_flash_controller.o)
 .debug_pubnames
                0x00002466       0xa5 ../SemaforoNet_bsp/\libucosii_bsp.a(altera_avalon_jtag_uart_fd.o)
 .debug_pubnames
                0x0000250b       0x55 ../SemaforoNet_bsp/\libucosii_bsp.a(altera_avalon_jtag_uart_init.o)
 .debug_pubnames
                0x00002560       0x34 ../SemaforoNet_bsp/\libucosii_bsp.a(altera_avalon_jtag_uart_ioctl.o)
 .debug_pubnames
                0x00002594       0x33 ../SemaforoNet_bsp/\libucosii_bsp.a(altera_avalon_jtag_uart_read.o)
 .debug_pubnames
                0x000025c7       0x34 ../SemaforoNet_bsp/\libucosii_bsp.a(altera_avalon_jtag_uart_write.o)
 .debug_pubnames
                0x000025fb       0x55 ../SemaforoNet_bsp/\libucosii_bsp.a(altera_avalon_lcd_16207.o)
 .debug_pubnames
                0x00002650       0x37 ../SemaforoNet_bsp/\libucosii_bsp.a(altera_avalon_lcd_16207_fd.o)
 .debug_pubnames
                0x00002687       0x2f ../SemaforoNet_bsp/\libucosii_bsp.a(altera_avalon_timer_sc.o)
 .debug_pubnames
                0x000026b6       0x71 ../SemaforoNet_bsp/\libucosii_bsp.a(altera_avalon_uart_fd.o)
 .debug_pubnames
                0x00002727       0x4b ../SemaforoNet_bsp/\libucosii_bsp.a(altera_avalon_uart_init.o)
 .debug_pubnames
                0x00002772       0x2e ../SemaforoNet_bsp/\libucosii_bsp.a(altera_avalon_uart_read.o)
 .debug_pubnames
                0x000027a0       0x2f ../SemaforoNet_bsp/\libucosii_bsp.a(altera_avalon_uart_write.o)
 .debug_pubnames
                0x000027cf      0x118 ../SemaforoNet_bsp/\libucosii_bsp.a(epcs_commands.o)
 .debug_pubnames
                0x000028e7       0x1c ../SemaforoNet_bsp/\libucosii_bsp.a(alt_iniche_close.o)
 .debug_pubnames
                0x00002903       0x42 ../SemaforoNet_bsp/\libucosii_bsp.a(alt_iniche_dev.o)
 .debug_pubnames
                0x00002945       0x1b ../SemaforoNet_bsp/\libucosii_bsp.a(alt_iniche_read.o)
 .debug_pubnames
                0x00002960       0x1c ../SemaforoNet_bsp/\libucosii_bsp.a(alt_iniche_write.o)
 .debug_pubnames
                0x0000297c       0x90 ../SemaforoNet_bsp/\libucosii_bsp.a(ipnet.o)
 .debug_pubnames
                0x00002a0c       0x81 ../SemaforoNet_bsp/\libucosii_bsp.a(ipstart.o)
 .debug_pubnames
                0x00002a8d      0x108 ../SemaforoNet_bsp/\libucosii_bsp.a(igmp_cmn.o)
 .debug_pubnames
                0x00002b95       0xc4 ../SemaforoNet_bsp/\libucosii_bsp.a(bsdsock.o)
 .debug_pubnames
                0x00002c59       0x27 ../SemaforoNet_bsp/\libucosii_bsp.a(cksum.o)
 .debug_pubnames
                0x00002c80       0xcc ../SemaforoNet_bsp/\libucosii_bsp.a(in_utils.o)
 .debug_pubnames
                0x00002d4c       0xb2 ../SemaforoNet_bsp/\libucosii_bsp.a(netmain.o)
 .debug_pubnames
                0x00002dfe       0xa6 ../SemaforoNet_bsp/\libucosii_bsp.a(parseip.o)
 .debug_pubnames
                0x00002ea4       0x97 ../SemaforoNet_bsp/\libucosii_bsp.a(tk_crnos.o)
 .debug_pubnames
                0x00002f3b      0x252 ../SemaforoNet_bsp/\libucosii_bsp.a(dhcpclnt.o)
 .debug_pubnames
                0x0000318d       0x1f ../SemaforoNet_bsp/\libucosii_bsp.a(dhcputil.o)
 .debug_pubnames
                0x000031ac       0xe2 ../SemaforoNet_bsp/\libucosii_bsp.a(pktalloc.o)
 .debug_pubnames
                0x0000328e       0x2d ../SemaforoNet_bsp/\libucosii_bsp.a(q.o)
 .debug_pubnames
                0x000032bb       0x3a ../SemaforoNet_bsp/\libucosii_bsp.a(udp_open.o)
 .debug_pubnames
                0x000032f5       0xc5 ../SemaforoNet_bsp/\libucosii_bsp.a(brdutils.o)
 .debug_pubnames
                0x000033ba      0x10c ../SemaforoNet_bsp/\libucosii_bsp.a(osportco.o)
 .debug_pubnames
                0x000034c6       0xf5 ../SemaforoNet_bsp/\libucosii_bsp.a(targnios.o)
 .debug_pubnames
                0x000035bb      0x190 ../SemaforoNet_bsp/\libucosii_bsp.a(nptcp.o)
 .debug_pubnames
                0x0000374b       0x46 ../SemaforoNet_bsp/\libucosii_bsp.a(rawsock.o)
 .debug_pubnames
                0x00003791      0x108 ../SemaforoNet_bsp/\libucosii_bsp.a(sockcall.o)
 .debug_pubnames
                0x00003899       0xfc ../SemaforoNet_bsp/\libucosii_bsp.a(socket.o)
 .debug_pubnames
                0x00003995      0x178 ../SemaforoNet_bsp/\libucosii_bsp.a(socket2.o)
 .debug_pubnames
                0x00003b0d       0x92 ../SemaforoNet_bsp/\libucosii_bsp.a(soselect.o)
 .debug_pubnames
                0x00003b9f       0xc2 ../SemaforoNet_bsp/\libucosii_bsp.a(tcp_in.o)
 .debug_pubnames
                0x00003c61       0x57 ../SemaforoNet_bsp/\libucosii_bsp.a(tcp_out.o)
 .debug_pubnames
                0x00003cb8       0xb9 ../SemaforoNet_bsp/\libucosii_bsp.a(tcp_subr.o)
 .debug_pubnames
                0x00003d71       0x96 ../SemaforoNet_bsp/\libucosii_bsp.a(tcp_timr.o)
 .debug_pubnames
                0x00003e07       0x79 ../SemaforoNet_bsp/\libucosii_bsp.a(tcp_usr.o)
 .debug_pubnames
                0x00003e80       0x1e ../SemaforoNet_bsp/\libucosii_bsp.a(tcpport.o)
 .debug_pubnames
                0x00003e9e       0x76 ../SemaforoNet_bsp/\libucosii_bsp.a(udpsock.o)
 .debug_pubnames
                0x00003f14       0x26 ../SemaforoNet_bsp/\libucosii_bsp.a(alt_alarm_start.o)
 .debug_pubnames
                0x00003f3a       0x25 ../SemaforoNet_bsp/\libucosii_bsp.a(alt_busy_sleep.o)
 .debug_pubnames
                0x00003f5f       0x20 ../SemaforoNet_bsp/\libucosii_bsp.a(alt_close.o)
 .debug_pubnames
                0x00003f7f       0x27 ../SemaforoNet_bsp/\libucosii_bsp.a(alt_dcache_flush.o)
 .debug_pubnames
                0x00003fa6       0x78 ../SemaforoNet_bsp/\libucosii_bsp.a(alt_dev.o)
 .debug_pubnames
                0x0000401e       0x2b ../SemaforoNet_bsp/\libucosii_bsp.a(alt_dev_llist_insert.o)
 .debug_pubnames
                0x00004049       0x20 ../SemaforoNet_bsp/\libucosii_bsp.a(alt_do_ctors.o)
 .debug_pubnames
                0x00004069       0x20 ../SemaforoNet_bsp/\libucosii_bsp.a(alt_do_dtors.o)
 .debug_pubnames
                0x00004089       0x20 ../SemaforoNet_bsp/\libucosii_bsp.a(alt_errno.o)
 .debug_pubnames
                0x000040a9       0x23 ../SemaforoNet_bsp/\libucosii_bsp.a(alt_find_dev.o)
 .debug_pubnames
                0x000040cc       0x6e ../SemaforoNet_bsp/\libucosii_bsp.a(alt_iic.o)
 .debug_pubnames
                0x0000413a       0x2b ../SemaforoNet_bsp/\libucosii_bsp.a(alt_iic_isr_register.o)
 .debug_pubnames
                0x00004165       0x26 ../SemaforoNet_bsp/\libucosii_bsp.a(alt_io_redirect.o)
 .debug_pubnames
                0x0000418b       0x32 ../SemaforoNet_bsp/\libucosii_bsp.a(alt_irq_handler.o)
 .debug_pubnames
                0x000041bd       0x1b ../SemaforoNet_bsp/\libucosii_bsp.a(alt_open.o)
 .debug_pubnames
                0x000041d8       0x1f ../SemaforoNet_bsp/\libucosii_bsp.a(alt_read.o)
 .debug_pubnames
                0x000041f7       0x25 ../SemaforoNet_bsp/\libucosii_bsp.a(alt_release_fd.o)
 .debug_pubnames
                0x0000421c       0x27 ../SemaforoNet_bsp/\libucosii_bsp.a(alt_remap_cached.o)
 .debug_pubnames
                0x00004243       0x29 ../SemaforoNet_bsp/\libucosii_bsp.a(alt_remap_uncached.o)
 .debug_pubnames
                0x0000426c       0x68 ../SemaforoNet_bsp/\libucosii_bsp.a(alt_tick.o)
 .debug_pubnames
                0x000042d4       0x20 ../SemaforoNet_bsp/\libucosii_bsp.a(alt_write.o)
 .debug_pubnames
                0x000042f4       0x31 ../SemaforoNet_bsp/\libucosii_bsp.a(altera_nios2_qsys_irq.o)
 .debug_pubnames
                0x00004325       0xcd ../SemaforoNet_bsp/\libucosii_bsp.a(os_cpu_c.o)
 .debug_pubnames
                0x000043f2       0x3e ../SemaforoNet_bsp/\libucosii_bsp.a(altera_avalon_cfi_flash_amd.o)
 .debug_pubnames
                0x00004430       0x42 ../SemaforoNet_bsp/\libucosii_bsp.a(altera_avalon_cfi_flash_intel.o)
 .debug_pubnames
                0x00004472       0x2d ../SemaforoNet_bsp/\libucosii_bsp.a(altera_avalon_spi.o)
 .debug_pubnames
                0x0000449f       0xd4 ../SemaforoNet_bsp/\libucosii_bsp.a(allports.o)
 .debug_pubnames
                0x00004573       0x6f ../SemaforoNet_bsp/\libucosii_bsp.a(timeouts.o)
 .debug_pubnames
                0x000045e2       0x35 ../SemaforoNet_bsp/\libucosii_bsp.a(tk_misc.o)
 .debug_pubnames
                0x00004617       0x1c ../SemaforoNet_bsp/\libucosii_bsp.a(alt_iniche_fcntl.o)
 .debug_pubnames
                0x00004633      0x134 ../SemaforoNet_bsp/\libucosii_bsp.a(et_arp.o)
 .debug_pubnames
                0x00004767       0x58 ../SemaforoNet_bsp/\libucosii_bsp.a(iface.o)
 .debug_pubnames
                0x000047bf       0xea ../SemaforoNet_bsp/\libucosii_bsp.a(ip.o)
 .debug_pubnames
                0x000048a9      0x22e ../SemaforoNet_bsp/\libucosii_bsp.a(ip_reasm.o)
 .debug_pubnames
                0x00004ad7       0x3c ../SemaforoNet_bsp/\libucosii_bsp.a(ipdemux.o)
 .debug_pubnames
                0x00004b13       0x43 ../SemaforoNet_bsp/\libucosii_bsp.a(ipmc.o)
 .debug_pubnames
                0x00004b56       0x99 ../SemaforoNet_bsp/\libucosii_bsp.a(ipport.o)
 .debug_pubnames
                0x00004bef       0x87 ../SemaforoNet_bsp/\libucosii_bsp.a(ipraw.o)
 .debug_pubnames
                0x00004c76       0x5d ../SemaforoNet_bsp/\libucosii_bsp.a(iproute.o)
 .debug_pubnames
                0x00004cd3       0x7f ../SemaforoNet_bsp/\libucosii_bsp.a(udp.o)
 .debug_pubnames
                0x00004d52       0x23 ../SemaforoNet_bsp/\libucosii_bsp.a(igmp.o)
 .debug_pubnames
                0x00004d75       0x8d ../SemaforoNet_bsp/\libucosii_bsp.a(igmp2.o)
 .debug_pubnames
                0x00004e02       0x5f ../SemaforoNet_bsp/\libucosii_bsp.a(ipopt.o)
 .debug_pubnames
                0x00004e61       0x35 ../SemaforoNet_bsp/\libucosii_bsp.a(u_mctest.o)
 .debug_pubnames
                0x00004e96       0x33 ../SemaforoNet_bsp/\libucosii_bsp.a(dhcsetup.o)
 .debug_pubnames
                0x00004ec9       0xb1 ../SemaforoNet_bsp/\libucosii_bsp.a(memdev.o)
 .debug_pubnames
                0x00004f7a       0x20 ../SemaforoNet_bsp/\libucosii_bsp.a(tcpcksum.o)
 .debug_pubnames
                0x00004f9a       0xc8 ../SemaforoNet_bsp/\libucosii_bsp.a(in_pcb.o)
 .debug_pubnames
                0x00005062      0x278 ../SemaforoNet_bsp/\libucosii_bsp.a(vfsfiles.o)
 .debug_pubnames
                0x000052da       0x1f ../SemaforoNet_bsp/\libucosii_bsp.a(vfsport.o)
 .debug_pubnames
                0x000052f9       0x20 ../SemaforoNet_bsp/\libucosii_bsp.a(alt_fcntl.o)
 .debug_pubnames
                0x00005319       0x24 ../SemaforoNet_bsp/\libucosii_bsp.a(alt_find_file.o)
 .debug_pubnames
                0x0000533d       0x21 ../SemaforoNet_bsp/\libucosii_bsp.a(alt_get_fd.o)
 .debug_pubnames
                0x0000535e       0x66 ../SemaforoNet_bsp/\libucosii_bsp.a(icmp.o)
 .debug_pubnames
                0x000053c4       0x2a c:/altera/13.0sp1/nios2eds/bin/gnu/h-i686-mingw32/bin/../lib/gcc/nios2-elf/4.1.2/../../../../nios2-elf/lib\libc.a(lib_a-atexit.o)
 .debug_pubnames
                0x000053ee       0x27 c:/altera/13.0sp1/nios2eds/bin/gnu/h-i686-mingw32/bin/../lib/gcc/nios2-elf/4.1.2/../../../../nios2-elf/lib\libc.a(lib_a-atoi.o)
 .debug_pubnames
                0x00005415       0x1d c:/altera/13.0sp1/nios2eds/bin/gnu/h-i686-mingw32/bin/../lib/gcc/nios2-elf/4.1.2/../../../../nios2-elf/lib\libc.a(lib_a-calloc.o)
 .debug_pubnames
                0x00005432       0x1d c:/altera/13.0sp1/nios2eds/bin/gnu/h-i686-mingw32/bin/../lib/gcc/nios2-elf/4.1.2/../../../../nios2-elf/lib\libc.a(lib_a-memcmp.o)
 .debug_pubnames
                0x0000544f       0x1d c:/altera/13.0sp1/nios2eds/bin/gnu/h-i686-mingw32/bin/../lib/gcc/nios2-elf/4.1.2/../../../../nios2-elf/lib\libc.a(lib_a-strcpy.o)
 .debug_pubnames
                0x0000546c       0x1e c:/altera/13.0sp1/nios2eds/bin/gnu/h-i686-mingw32/bin/../lib/gcc/nios2-elf/4.1.2/../../../../nios2-elf/lib\libc.a(lib_a-strncmp.o)
 .debug_pubnames
                0x0000548a       0x2d c:/altera/13.0sp1/nios2eds/bin/gnu/h-i686-mingw32/bin/../lib/gcc/nios2-elf/4.1.2/../../../../nios2-elf/lib\libc.a(lib_a-vprintf.o)
 .debug_pubnames
                0x000054b7       0x2f c:/altera/13.0sp1/nios2eds/bin/gnu/h-i686-mingw32/bin/../lib/gcc/nios2-elf/4.1.2/../../../../nios2-elf/lib\libc.a(lib_a-vsprintf.o)
 .debug_pubnames
                0x000054e6       0x2a c:/altera/13.0sp1/nios2eds/bin/gnu/h-i686-mingw32/bin/../lib/gcc/nios2-elf/4.1.2/../../../../nios2-elf/lib\libc.a(lib_a-__atexit.o)

.debug_info     0x00000000    0x7c271
 *(.debug_info .gnu.linkonce.wi.*)
 .debug_info    0x00000000       0x65 ../SemaforoNet_bsp//obj/HAL/src/crt0.o
 .debug_info    0x00000065      0xd56 obj/default/alt_error_handler.o
 .debug_info    0x00000dbb     0x1243 obj/default/dm9000a.o
 .debug_info    0x00001ffe      0x45c obj/default/led.o
 .debug_info    0x0000245a      0xda9 obj/default/main.o
 .debug_info    0x00003203     0x1caf obj/default/network_utilities.o
 .debug_info    0x00004eb2      0x92e obj/default/simple_socket_server.o
 .debug_info    0x000057e0        0x0 obj/default/tse_my_system.o
 .debug_info    0x000057e0       0xce c:/altera/13.0sp1/nios2eds/bin/gnu/h-i686-mingw32/bin/../lib/gcc/nios2-elf/4.1.2\libgcc.a(_fixunsdfsi.o)
 .debug_info    0x000058ae      0x493 c:/altera/13.0sp1/nios2eds/bin/gnu/h-i686-mingw32/bin/../lib/gcc/nios2-elf/4.1.2\libgcc.a(_addsub_df.o)
 .debug_info    0x00005d41      0x488 c:/altera/13.0sp1/nios2eds/bin/gnu/h-i686-mingw32/bin/../lib/gcc/nios2-elf/4.1.2\libgcc.a(_mul_df.o)
 .debug_info    0x000061c9      0x29d c:/altera/13.0sp1/nios2eds/bin/gnu/h-i686-mingw32/bin/../lib/gcc/nios2-elf/4.1.2\libgcc.a(_ge_df.o)
 .debug_info    0x00006466      0x2cd c:/altera/13.0sp1/nios2eds/bin/gnu/h-i686-mingw32/bin/../lib/gcc/nios2-elf/4.1.2\libgcc.a(_df_to_si.o)
 .debug_info    0x00006733      0x164 c:/altera/13.0sp1/nios2eds/bin/gnu/h-i686-mingw32/bin/../lib/gcc/nios2-elf/4.1.2\libgcc.a(_thenan_df.o)
 .debug_info    0x00006897      0x213 c:/altera/13.0sp1/nios2eds/bin/gnu/h-i686-mingw32/bin/../lib/gcc/nios2-elf/4.1.2\libgcc.a(_usi_to_df.o)
 .debug_info    0x00006aaa      0x215 c:/altera/13.0sp1/nios2eds/bin/gnu/h-i686-mingw32/bin/../lib/gcc/nios2-elf/4.1.2\libgcc.a(_muldi3.o)
 .debug_info    0x00006cbf      0x130 c:/altera/13.0sp1/nios2eds/bin/gnu/h-i686-mingw32/bin/../lib/gcc/nios2-elf/4.1.2\libgcc.a(_clzsi2.o)
 .debug_info    0x00006def      0x2fc c:/altera/13.0sp1/nios2eds/bin/gnu/h-i686-mingw32/bin/../lib/gcc/nios2-elf/4.1.2\libgcc.a(_pack_df.o)
 .debug_info    0x000070eb      0x268 c:/altera/13.0sp1/nios2eds/bin/gnu/h-i686-mingw32/bin/../lib/gcc/nios2-elf/4.1.2\libgcc.a(_unpack_df.o)
 .debug_info    0x00007353      0x21b c:/altera/13.0sp1/nios2eds/bin/gnu/h-i686-mingw32/bin/../lib/gcc/nios2-elf/4.1.2\libgcc.a(_fpcmp_parts_df.o)
 .debug_info    0x0000756e       0xc9 c:/altera/13.0sp1/nios2eds/bin/gnu/h-i686-mingw32/bin/../lib/gcc/nios2-elf/4.1.2\libgcc.a(_clz.o)
 .debug_info    0x00007637       0xa0 c:/altera/13.0sp1/nios2eds/bin/gnu/h-i686-mingw32/bin/../lib/gcc/nios2-elf/4.1.2/../../../../nios2-elf/lib\libc.a(lib_a-ctype_.o)
 .debug_info    0x000076d7      0x93f c:/altera/13.0sp1/nios2eds/bin/gnu/h-i686-mingw32/bin/../lib/gcc/nios2-elf/4.1.2/../../../../nios2-elf/lib\libc.a(lib_a-exit.o)
 .debug_info    0x00008016      0x9e1 c:/altera/13.0sp1/nios2eds/bin/gnu/h-i686-mingw32/bin/../lib/gcc/nios2-elf/4.1.2/../../../../nios2-elf/lib\libc.a(lib_a-fprintf.o)
 .debug_info    0x000089f7      0xa83 c:/altera/13.0sp1/nios2eds/bin/gnu/h-i686-mingw32/bin/../lib/gcc/nios2-elf/4.1.2/../../../../nios2-elf/lib\libc.a(lib_a-fwrite.o)
 .debug_info    0x0000947a      0x9a7 c:/altera/13.0sp1/nios2eds/bin/gnu/h-i686-mingw32/bin/../lib/gcc/nios2-elf/4.1.2/../../../../nios2-elf/lib\libc.a(lib_a-getc.o)
 .debug_info    0x00009e21      0x93d c:/altera/13.0sp1/nios2eds/bin/gnu/h-i686-mingw32/bin/../lib/gcc/nios2-elf/4.1.2/../../../../nios2-elf/lib\libc.a(lib_a-impure.o)
 .debug_info    0x0000a75e      0x96e c:/altera/13.0sp1/nios2eds/bin/gnu/h-i686-mingw32/bin/../lib/gcc/nios2-elf/4.1.2/../../../../nios2-elf/lib\libc.a(lib_a-malloc.o)
 .debug_info    0x0000b0cc      0xcd0 c:/altera/13.0sp1/nios2eds/bin/gnu/h-i686-mingw32/bin/../lib/gcc/nios2-elf/4.1.2/../../../../nios2-elf/lib\libc.a(lib_a-mallocr.o)
 .debug_info    0x0000bd9c      0x106 c:/altera/13.0sp1/nios2eds/bin/gnu/h-i686-mingw32/bin/../lib/gcc/nios2-elf/4.1.2/../../../../nios2-elf/lib\libc.a(lib_a-memcpy.o)
 .debug_info    0x0000bea2      0x13e c:/altera/13.0sp1/nios2eds/bin/gnu/h-i686-mingw32/bin/../lib/gcc/nios2-elf/4.1.2/../../../../nios2-elf/lib\libc.a(lib_a-memmove.o)
 .debug_info    0x0000bfe0      0x113 c:/altera/13.0sp1/nios2eds/bin/gnu/h-i686-mingw32/bin/../lib/gcc/nios2-elf/4.1.2/../../../../nios2-elf/lib\libc.a(lib_a-memset.o)
 .debug_info    0x0000c0f3      0x97b c:/altera/13.0sp1/nios2eds/bin/gnu/h-i686-mingw32/bin/../lib/gcc/nios2-elf/4.1.2/../../../../nios2-elf/lib\libc.a(lib_a-perror.o)
 .debug_info    0x0000ca6e      0x9d1 c:/altera/13.0sp1/nios2eds/bin/gnu/h-i686-mingw32/bin/../lib/gcc/nios2-elf/4.1.2/../../../../nios2-elf/lib\libc.a(lib_a-printf.o)
 .debug_info    0x0000d43f      0x9c1 c:/altera/13.0sp1/nios2eds/bin/gnu/h-i686-mingw32/bin/../lib/gcc/nios2-elf/4.1.2/../../../../nios2-elf/lib\libc.a(lib_a-putc.o)
 .debug_info    0x0000de00      0x972 c:/altera/13.0sp1/nios2eds/bin/gnu/h-i686-mingw32/bin/../lib/gcc/nios2-elf/4.1.2/../../../../nios2-elf/lib\libc.a(lib_a-putchar.o)
 .debug_info    0x0000e772      0xa25 c:/altera/13.0sp1/nios2eds/bin/gnu/h-i686-mingw32/bin/../lib/gcc/nios2-elf/4.1.2/../../../../nios2-elf/lib\libc.a(lib_a-puts.o)
 .debug_info    0x0000f197      0x987 c:/altera/13.0sp1/nios2eds/bin/gnu/h-i686-mingw32/bin/../lib/gcc/nios2-elf/4.1.2/../../../../nios2-elf/lib\libc.a(lib_a-rget.o)
 .debug_info    0x0000fb1e      0x962 c:/altera/13.0sp1/nios2eds/bin/gnu/h-i686-mingw32/bin/../lib/gcc/nios2-elf/4.1.2/../../../../nios2-elf/lib\libc.a(lib_a-sbrkr.o)
 .debug_info    0x00010480      0xa16 c:/altera/13.0sp1/nios2eds/bin/gnu/h-i686-mingw32/bin/../lib/gcc/nios2-elf/4.1.2/../../../../nios2-elf/lib\libc.a(lib_a-sprintf.o)
 .debug_info    0x00010e96      0x118 c:/altera/13.0sp1/nios2eds/bin/gnu/h-i686-mingw32/bin/../lib/gcc/nios2-elf/4.1.2/../../../../nios2-elf/lib\libc.a(lib_a-strchr.o)
 .debug_info    0x00010fae       0xdd c:/altera/13.0sp1/nios2eds/bin/gnu/h-i686-mingw32/bin/../lib/gcc/nios2-elf/4.1.2/../../../../nios2-elf/lib\libc.a(lib_a-strcmp.o)
 .debug_info    0x0001108b       0xbb c:/altera/13.0sp1/nios2eds/bin/gnu/h-i686-mingw32/bin/../lib/gcc/nios2-elf/4.1.2/../../../../nios2-elf/lib\libc.a(lib_a-strerror.o)
 .debug_info    0x00011146       0xdb c:/altera/13.0sp1/nios2eds/bin/gnu/h-i686-mingw32/bin/../lib/gcc/nios2-elf/4.1.2/../../../../nios2-elf/lib\libc.a(lib_a-strlen.o)
 .debug_info    0x00011221      0x12a c:/altera/13.0sp1/nios2eds/bin/gnu/h-i686-mingw32/bin/../lib/gcc/nios2-elf/4.1.2/../../../../nios2-elf/lib\libc.a(lib_a-strncpy.o)
 .debug_info    0x0001134b      0xa2a c:/altera/13.0sp1/nios2eds/bin/gnu/h-i686-mingw32/bin/../lib/gcc/nios2-elf/4.1.2/../../../../nios2-elf/lib\libc.a(lib_a-strtol.o)
 .debug_info    0x00011d75       0x63 c:/altera/13.0sp1/nios2eds/bin/gnu/h-i686-mingw32/bin/../lib/gcc/nios2-elf/4.1.2/../../../../nios2-elf/lib\libc.a(lib_a-u_strerr.o)
 .debug_info    0x00011dd8     0x10d5 c:/altera/13.0sp1/nios2eds/bin/gnu/h-i686-mingw32/bin/../lib/gcc/nios2-elf/4.1.2/../../../../nios2-elf/lib\libc.a(lib_a-vfprintf.o)
 .debug_info    0x00012ead      0x9ae c:/altera/13.0sp1/nios2eds/bin/gnu/h-i686-mingw32/bin/../lib/gcc/nios2-elf/4.1.2/../../../../nios2-elf/lib\libc.a(lib_a-wbuf.o)
 .debug_info    0x0001385b      0x95d c:/altera/13.0sp1/nios2eds/bin/gnu/h-i686-mingw32/bin/../lib/gcc/nios2-elf/4.1.2/../../../../nios2-elf/lib\libc.a(lib_a-wsetup.o)
 .debug_info    0x000141b8      0x9e2 c:/altera/13.0sp1/nios2eds/bin/gnu/h-i686-mingw32/bin/../lib/gcc/nios2-elf/4.1.2/../../../../nios2-elf/lib\libc.a(lib_a-__call_atexit.o)
 .debug_info    0x00014b9a      0xd6f c:/altera/13.0sp1/nios2eds/bin/gnu/h-i686-mingw32/bin/../lib/gcc/nios2-elf/4.1.2/../../../../nios2-elf/lib\libc.a(lib_a-dtoa.o)
 .debug_info    0x00015909      0x9fe c:/altera/13.0sp1/nios2eds/bin/gnu/h-i686-mingw32/bin/../lib/gcc/nios2-elf/4.1.2/../../../../nios2-elf/lib\libc.a(lib_a-fflush.o)
 .debug_info    0x00016307      0xb72 c:/altera/13.0sp1/nios2eds/bin/gnu/h-i686-mingw32/bin/../lib/gcc/nios2-elf/4.1.2/../../../../nios2-elf/lib\libc.a(lib_a-findfp.o)
 .debug_info    0x00016e79      0x9bd c:/altera/13.0sp1/nios2eds/bin/gnu/h-i686-mingw32/bin/../lib/gcc/nios2-elf/4.1.2/../../../../nios2-elf/lib\libc.a(lib_a-fputc.o)
 .debug_info    0x00017836      0xa40 c:/altera/13.0sp1/nios2eds/bin/gnu/h-i686-mingw32/bin/../lib/gcc/nios2-elf/4.1.2/../../../../nios2-elf/lib\libc.a(lib_a-fputs.o)
 .debug_info    0x00018276      0xbc9 c:/altera/13.0sp1/nios2eds/bin/gnu/h-i686-mingw32/bin/../lib/gcc/nios2-elf/4.1.2/../../../../nios2-elf/lib\libc.a(lib_a-freer.o)
 .debug_info    0x00018e3f      0xa88 c:/altera/13.0sp1/nios2eds/bin/gnu/h-i686-mingw32/bin/../lib/gcc/nios2-elf/4.1.2/../../../../nios2-elf/lib\libc.a(lib_a-fvwrite.o)
 .debug_info    0x000198c7      0xaed c:/altera/13.0sp1/nios2eds/bin/gnu/h-i686-mingw32/bin/../lib/gcc/nios2-elf/4.1.2/../../../../nios2-elf/lib\libc.a(lib_a-fwalk.o)
 .debug_info    0x0001a3b4       0x8c c:/altera/13.0sp1/nios2eds/bin/gnu/h-i686-mingw32/bin/../lib/gcc/nios2-elf/4.1.2/../../../../nios2-elf/lib\libc.a(lib_a-int_errno.o)
 .debug_info    0x0001a440      0xb97 c:/altera/13.0sp1/nios2eds/bin/gnu/h-i686-mingw32/bin/../lib/gcc/nios2-elf/4.1.2/../../../../nios2-elf/lib\libc.a(lib_a-locale.o)
 .debug_info    0x0001afd7      0xb1a c:/altera/13.0sp1/nios2eds/bin/gnu/h-i686-mingw32/bin/../lib/gcc/nios2-elf/4.1.2/../../../../nios2-elf/lib\libc.a(lib_a-makebuf.o)
 .debug_info    0x0001baf1      0x138 c:/altera/13.0sp1/nios2eds/bin/gnu/h-i686-mingw32/bin/../lib/gcc/nios2-elf/4.1.2/../../../../nios2-elf/lib\libc.a(lib_a-memchr.o)
 .debug_info    0x0001bc29     0x1437 c:/altera/13.0sp1/nios2eds/bin/gnu/h-i686-mingw32/bin/../lib/gcc/nios2-elf/4.1.2/../../../../nios2-elf/lib\libc.a(lib_a-mprec.o)
 .debug_info    0x0001d060      0xbd7 c:/altera/13.0sp1/nios2eds/bin/gnu/h-i686-mingw32/bin/../lib/gcc/nios2-elf/4.1.2/../../../../nios2-elf/lib\libc.a(lib_a-reallocr.o)
 .debug_info    0x0001dc37      0x98b c:/altera/13.0sp1/nios2eds/bin/gnu/h-i686-mingw32/bin/../lib/gcc/nios2-elf/4.1.2/../../../../nios2-elf/lib\libc.a(lib_a-refill.o)
 .debug_info    0x0001e5c2       0xd7 c:/altera/13.0sp1/nios2eds/bin/gnu/h-i686-mingw32/bin/../lib/gcc/nios2-elf/4.1.2/../../../../nios2-elf/lib\libc.a(lib_a-s_isinfd.o)
 .debug_info    0x0001e699       0xd5 c:/altera/13.0sp1/nios2eds/bin/gnu/h-i686-mingw32/bin/../lib/gcc/nios2-elf/4.1.2/../../../../nios2-elf/lib\libc.a(lib_a-s_isnand.o)
 .debug_info    0x0001e76e      0xaac c:/altera/13.0sp1/nios2eds/bin/gnu/h-i686-mingw32/bin/../lib/gcc/nios2-elf/4.1.2/../../../../nios2-elf/lib\libc.a(lib_a-stdio.o)
 .debug_info    0x0001f21a      0x993 c:/altera/13.0sp1/nios2eds/bin/gnu/h-i686-mingw32/bin/../lib/gcc/nios2-elf/4.1.2/../../../../nios2-elf/lib\libc.a(lib_a-writer.o)
 .debug_info    0x0001fbad      0xa1b c:/altera/13.0sp1/nios2eds/bin/gnu/h-i686-mingw32/bin/../lib/gcc/nios2-elf/4.1.2/../../../../nios2-elf/lib\libc.a(lib_a-callocr.o)
 .debug_info    0x000205c8      0x958 c:/altera/13.0sp1/nios2eds/bin/gnu/h-i686-mingw32/bin/../lib/gcc/nios2-elf/4.1.2/../../../../nios2-elf/lib\libc.a(lib_a-closer.o)
 .debug_info    0x00020f20      0x994 c:/altera/13.0sp1/nios2eds/bin/gnu/h-i686-mingw32/bin/../lib/gcc/nios2-elf/4.1.2/../../../../nios2-elf/lib\libc.a(lib_a-fclose.o)
 .debug_info    0x000218b4      0xafc c:/altera/13.0sp1/nios2eds/bin/gnu/h-i686-mingw32/bin/../lib/gcc/nios2-elf/4.1.2/../../../../nios2-elf/lib\libc.a(lib_a-fstatr.o)
 .debug_info    0x000223b0      0x958 c:/altera/13.0sp1/nios2eds/bin/gnu/h-i686-mingw32/bin/../lib/gcc/nios2-elf/4.1.2/../../../../nios2-elf/lib\libc.a(lib_a-isattyr.o)
 .debug_info    0x00022d08      0x981 c:/altera/13.0sp1/nios2eds/bin/gnu/h-i686-mingw32/bin/../lib/gcc/nios2-elf/4.1.2/../../../../nios2-elf/lib\libc.a(lib_a-lseekr.o)
 .debug_info    0x00023689      0x98c c:/altera/13.0sp1/nios2eds/bin/gnu/h-i686-mingw32/bin/../lib/gcc/nios2-elf/4.1.2/../../../../nios2-elf/lib\libc.a(lib_a-readr.o)
 .debug_info    0x00024015      0x724 c:/altera/13.0sp1/nios2eds/bin/gnu/h-i686-mingw32/bin/../lib/gcc/nios2-elf/4.1.2\libgcc.a(_udivdi3.o)
 .debug_info    0x00024739      0x751 c:/altera/13.0sp1/nios2eds/bin/gnu/h-i686-mingw32/bin/../lib/gcc/nios2-elf/4.1.2\libgcc.a(_umoddi3.o)
 .debug_info    0x00024e8a      0x39b c:/altera/13.0sp1/nios2eds/bin/gnu/h-i686-mingw32/bin/../lib/gcc/nios2-elf/4.1.2\libgcc.a(_div_df.o)
 .debug_info    0x00025225      0x29d c:/altera/13.0sp1/nios2eds/bin/gnu/h-i686-mingw32/bin/../lib/gcc/nios2-elf/4.1.2\libgcc.a(_eq_df.o)
 .debug_info    0x000254c2      0x29d c:/altera/13.0sp1/nios2eds/bin/gnu/h-i686-mingw32/bin/../lib/gcc/nios2-elf/4.1.2\libgcc.a(_ne_df.o)
 .debug_info    0x0002575f      0x29d c:/altera/13.0sp1/nios2eds/bin/gnu/h-i686-mingw32/bin/../lib/gcc/nios2-elf/4.1.2\libgcc.a(_gt_df.o)
 .debug_info    0x000259fc      0x29d c:/altera/13.0sp1/nios2eds/bin/gnu/h-i686-mingw32/bin/../lib/gcc/nios2-elf/4.1.2\libgcc.a(_lt_df.o)
 .debug_info    0x00025c99      0x218 c:/altera/13.0sp1/nios2eds/bin/gnu/h-i686-mingw32/bin/../lib/gcc/nios2-elf/4.1.2\libgcc.a(_si_to_df.o)
 .debug_info    0x00025eb1      0x21c c:/altera/13.0sp1/nios2eds/bin/gnu/h-i686-mingw32/bin/../lib/gcc/nios2-elf/4.1.2\libgcc.a(lib2-divmod.o)
 .debug_info    0x000260cd      0x1ee ../SemaforoNet_bsp/\libucosii_bsp.a(alt_exit.o)
 .debug_info    0x000262bb      0x5d3 ../SemaforoNet_bsp/\libucosii_bsp.a(alt_flash_dev.o)
 .debug_info    0x0002688e      0x69a ../SemaforoNet_bsp/\libucosii_bsp.a(alt_fstat.o)
 .debug_info    0x00026f28      0x450 ../SemaforoNet_bsp/\libucosii_bsp.a(alt_irq_register.o)
 .debug_info    0x00027378      0x14d ../SemaforoNet_bsp/\libucosii_bsp.a(alt_irq_vars.o)
 .debug_info    0x000274c5      0x6a0 ../SemaforoNet_bsp/\libucosii_bsp.a(alt_isatty.o)
 .debug_info    0x00027b65      0x4d4 ../SemaforoNet_bsp/\libucosii_bsp.a(alt_lseek.o)
 .debug_info    0x00028039      0x3c3 ../SemaforoNet_bsp/\libucosii_bsp.a(alt_main.o)
 .debug_info    0x000283fc      0x29d ../SemaforoNet_bsp/\libucosii_bsp.a(alt_sbrk.o)
 .debug_info    0x00028699      0x21a ../SemaforoNet_bsp/\libucosii_bsp.a(alt_usleep.o)
 .debug_info    0x000288b3     0x11b9 ../SemaforoNet_bsp/\libucosii_bsp.a(alt_env_lock.o)
 .debug_info    0x00029a6c     0x1315 ../SemaforoNet_bsp/\libucosii_bsp.a(alt_malloc_lock.o)
 .debug_info    0x0002ad81     0x1bcf ../SemaforoNet_bsp/\libucosii_bsp.a(os_core.o)
 .debug_info    0x0002c950     0x1114 ../SemaforoNet_bsp/\libucosii_bsp.a(os_dbg.o)
 .debug_info    0x0002da64     0x122a ../SemaforoNet_bsp/\libucosii_bsp.a(os_flag.o)
 .debug_info    0x0002ec8e      0x7f4 ../SemaforoNet_bsp/\libucosii_bsp.a(os_mem.o)
 .debug_info    0x0002f482     0x1064 ../SemaforoNet_bsp/\libucosii_bsp.a(os_q.o)
 .debug_info    0x000304e6      0xccc ../SemaforoNet_bsp/\libucosii_bsp.a(os_sem.o)
 .debug_info    0x000311b2     0x1342 ../SemaforoNet_bsp/\libucosii_bsp.a(os_task.o)
 .debug_info    0x000324f4      0x9c6 ../SemaforoNet_bsp/\libucosii_bsp.a(os_time.o)
 .debug_info    0x00032eba     0x1286 ../SemaforoNet_bsp/\libucosii_bsp.a(alt_sys_init.o)
 .debug_info    0x00034140      0xb2f ../SemaforoNet_bsp/\libucosii_bsp.a(altera_avalon_cfi_flash.o)
 .debug_info    0x00034c6f      0xe1b ../SemaforoNet_bsp/\libucosii_bsp.a(altera_avalon_cfi_flash_table.o)
 .debug_info    0x00035a8a      0xb8f ../SemaforoNet_bsp/\libucosii_bsp.a(altera_avalon_epcs_flash_controller.o)
 .debug_info    0x00036619      0x9b8 ../SemaforoNet_bsp/\libucosii_bsp.a(altera_avalon_jtag_uart_fd.o)
 .debug_info    0x00036fd1      0x936 ../SemaforoNet_bsp/\libucosii_bsp.a(altera_avalon_jtag_uart_init.o)
 .debug_info    0x00037907      0x622 ../SemaforoNet_bsp/\libucosii_bsp.a(altera_avalon_jtag_uart_ioctl.o)
 .debug_info    0x00037f29      0x7de ../SemaforoNet_bsp/\libucosii_bsp.a(altera_avalon_jtag_uart_read.o)
 .debug_info    0x00038707      0x7d5 ../SemaforoNet_bsp/\libucosii_bsp.a(altera_avalon_jtag_uart_write.o)
 .debug_info    0x00038edc      0xa84 ../SemaforoNet_bsp/\libucosii_bsp.a(altera_avalon_lcd_16207.o)
 .debug_info    0x00039960      0x81c ../SemaforoNet_bsp/\libucosii_bsp.a(altera_avalon_lcd_16207_fd.o)
 .debug_info    0x0003a17c      0x371 ../SemaforoNet_bsp/\libucosii_bsp.a(altera_avalon_timer_sc.o)
 .debug_info    0x0003a4ed      0x858 ../SemaforoNet_bsp/\libucosii_bsp.a(altera_avalon_uart_fd.o)
 .debug_info    0x0003ad45      0x824 ../SemaforoNet_bsp/\libucosii_bsp.a(altera_avalon_uart_init.o)
 .debug_info    0x0003b569      0x7a6 ../SemaforoNet_bsp/\libucosii_bsp.a(altera_avalon_uart_read.o)
 .debug_info    0x0003bd0f      0x795 ../SemaforoNet_bsp/\libucosii_bsp.a(altera_avalon_uart_write.o)
 .debug_info    0x0003c4a4      0x622 ../SemaforoNet_bsp/\libucosii_bsp.a(epcs_commands.o)
 .debug_info    0x0003cac6      0x19c ../SemaforoNet_bsp/\libucosii_bsp.a(alt_iniche_close.o)
 .debug_info    0x0003cc62      0xb43 ../SemaforoNet_bsp/\libucosii_bsp.a(alt_iniche_dev.o)
 .debug_info    0x0003d7a5      0x1c6 ../SemaforoNet_bsp/\libucosii_bsp.a(alt_iniche_read.o)
 .debug_info    0x0003d96b      0x1cd ../SemaforoNet_bsp/\libucosii_bsp.a(alt_iniche_write.o)
 .debug_info    0x0003db38      0xc2f ../SemaforoNet_bsp/\libucosii_bsp.a(ipnet.o)
 .debug_info    0x0003e767      0xb82 ../SemaforoNet_bsp/\libucosii_bsp.a(ipstart.o)
 .debug_info    0x0003f2e9     0x1516 ../SemaforoNet_bsp/\libucosii_bsp.a(igmp_cmn.o)
 .debug_info    0x000407ff     0x1446 ../SemaforoNet_bsp/\libucosii_bsp.a(bsdsock.o)
 .debug_info    0x00041c45      0x238 ../SemaforoNet_bsp/\libucosii_bsp.a(cksum.o)
 .debug_info    0x00041e7d      0x72a ../SemaforoNet_bsp/\libucosii_bsp.a(in_utils.o)
 .debug_info    0x000425a7      0x544 ../SemaforoNet_bsp/\libucosii_bsp.a(netmain.o)
 .debug_info    0x00042aeb      0x6d0 ../SemaforoNet_bsp/\libucosii_bsp.a(parseip.o)
 .debug_info    0x000431bb      0x951 ../SemaforoNet_bsp/\libucosii_bsp.a(tk_crnos.o)
 .debug_info    0x00043b0c     0x15df ../SemaforoNet_bsp/\libucosii_bsp.a(dhcpclnt.o)
 .debug_info    0x000450eb      0x1c2 ../SemaforoNet_bsp/\libucosii_bsp.a(dhcputil.o)
 .debug_info    0x000452ad      0xc8e ../SemaforoNet_bsp/\libucosii_bsp.a(pktalloc.o)
 .debug_info    0x00045f3b      0x2d2 ../SemaforoNet_bsp/\libucosii_bsp.a(q.o)
 .debug_info    0x0004620d      0xb0d ../SemaforoNet_bsp/\libucosii_bsp.a(udp_open.o)
 .debug_info    0x00046d1a       0x73 ../SemaforoNet_bsp/\libucosii_bsp.a(asm_cksum.o)
 .debug_info    0x00046d8d      0xe93 ../SemaforoNet_bsp/\libucosii_bsp.a(brdutils.o)
 .debug_info    0x00047c20      0x6c5 ../SemaforoNet_bsp/\libucosii_bsp.a(osportco.o)
 .debug_info    0x000482e5      0x642 ../SemaforoNet_bsp/\libucosii_bsp.a(targnios.o)
 .debug_info    0x00048927     0x2509 ../SemaforoNet_bsp/\libucosii_bsp.a(nptcp.o)
 .debug_info    0x0004ae30     0x11c1 ../SemaforoNet_bsp/\libucosii_bsp.a(rawsock.o)
 .debug_info    0x0004bff1     0x1c7f ../SemaforoNet_bsp/\libucosii_bsp.a(sockcall.o)
 .debug_info    0x0004dc70     0x1a85 ../SemaforoNet_bsp/\libucosii_bsp.a(socket.o)
 .debug_info    0x0004f6f5     0x154b ../SemaforoNet_bsp/\libucosii_bsp.a(socket2.o)
 .debug_info    0x00050c40     0x1264 ../SemaforoNet_bsp/\libucosii_bsp.a(soselect.o)
 .debug_info    0x00051ea4     0x2116 ../SemaforoNet_bsp/\libucosii_bsp.a(tcp_in.o)
 .debug_info    0x00053fba     0x1e05 ../SemaforoNet_bsp/\libucosii_bsp.a(tcp_out.o)
 .debug_info    0x00055dbf     0x1e6d ../SemaforoNet_bsp/\libucosii_bsp.a(tcp_subr.o)
 .debug_info    0x00057c2c     0x1c88 ../SemaforoNet_bsp/\libucosii_bsp.a(tcp_timr.o)
 .debug_info    0x000598b4     0x1c45 ../SemaforoNet_bsp/\libucosii_bsp.a(tcp_usr.o)
 .debug_info    0x0005b4f9      0x198 ../SemaforoNet_bsp/\libucosii_bsp.a(tcpport.o)
 .debug_info    0x0005b691     0x131b ../SemaforoNet_bsp/\libucosii_bsp.a(udpsock.o)
 .debug_info    0x0005c9ac      0x428 ../SemaforoNet_bsp/\libucosii_bsp.a(alt_alarm_start.o)
 .debug_info    0x0005cdd4      0x191 ../SemaforoNet_bsp/\libucosii_bsp.a(alt_busy_sleep.o)
 .debug_info    0x0005cf65      0x4a5 ../SemaforoNet_bsp/\libucosii_bsp.a(alt_close.o)
 .debug_info    0x0005d40a      0x18a ../SemaforoNet_bsp/\libucosii_bsp.a(alt_dcache_flush.o)
 .debug_info    0x0005d594      0x7c3 ../SemaforoNet_bsp/\libucosii_bsp.a(alt_dev.o)
 .debug_info    0x0005dd57      0x29d ../SemaforoNet_bsp/\libucosii_bsp.a(alt_dev_llist_insert.o)
 .debug_info    0x0005dff4       0xf5 ../SemaforoNet_bsp/\libucosii_bsp.a(alt_do_ctors.o)
 .debug_info    0x0005e0e9       0xf4 ../SemaforoNet_bsp/\libucosii_bsp.a(alt_do_dtors.o)
 .debug_info    0x0005e1dd      0x14a ../SemaforoNet_bsp/\libucosii_bsp.a(alt_errno.o)
 .debug_info    0x0005e327      0x452 ../SemaforoNet_bsp/\libucosii_bsp.a(alt_find_dev.o)
 .debug_info    0x0005e779      0x479 ../SemaforoNet_bsp/\libucosii_bsp.a(alt_iic.o)
 .debug_info    0x0005ebf2      0x2fa ../SemaforoNet_bsp/\libucosii_bsp.a(alt_iic_isr_register.o)
 .debug_info    0x0005eeec      0x6cf ../SemaforoNet_bsp/\libucosii_bsp.a(alt_io_redirect.o)
 .debug_info    0x0005f5bb       0x6a ../SemaforoNet_bsp/\libucosii_bsp.a(alt_irq_entry.o)
 .debug_info    0x0005f625      0x2a0 ../SemaforoNet_bsp/\libucosii_bsp.a(alt_irq_handler.o)
 .debug_info    0x0005f8c5      0x550 ../SemaforoNet_bsp/\libucosii_bsp.a(alt_open.o)
 .debug_info    0x0005fe15      0x6c8 ../SemaforoNet_bsp/\libucosii_bsp.a(alt_read.o)
 .debug_info    0x000604dd      0x435 ../SemaforoNet_bsp/\libucosii_bsp.a(alt_release_fd.o)
 .debug_info    0x00060912      0x177 ../SemaforoNet_bsp/\libucosii_bsp.a(alt_remap_cached.o)
 .debug_info    0x00060a89      0x17b ../SemaforoNet_bsp/\libucosii_bsp.a(alt_remap_uncached.o)
 .debug_info    0x00060c04      0x3f7 ../SemaforoNet_bsp/\libucosii_bsp.a(alt_tick.o)
 .debug_info    0x00060ffb      0x6d1 ../SemaforoNet_bsp/\libucosii_bsp.a(alt_write.o)
 .debug_info    0x000616cc      0x149 ../SemaforoNet_bsp/\libucosii_bsp.a(altera_nios2_qsys_irq.o)
 .debug_info    0x00061815       0x69 ../SemaforoNet_bsp/\libucosii_bsp.a(os_cpu_a.o)
 .debug_info    0x0006187e     0x12b9 ../SemaforoNet_bsp/\libucosii_bsp.a(os_cpu_c.o)
 .debug_info    0x00062b37      0x8cf ../SemaforoNet_bsp/\libucosii_bsp.a(altera_avalon_cfi_flash_amd.o)
 .debug_info    0x00063406      0x8c5 ../SemaforoNet_bsp/\libucosii_bsp.a(altera_avalon_cfi_flash_intel.o)
 .debug_info    0x00063ccb      0x28f ../SemaforoNet_bsp/\libucosii_bsp.a(altera_avalon_spi.o)
 .debug_info    0x00063f5a      0xd85 ../SemaforoNet_bsp/\libucosii_bsp.a(allports.o)
 .debug_info    0x00064cdf      0x3a7 ../SemaforoNet_bsp/\libucosii_bsp.a(timeouts.o)
 .debug_info    0x00065086      0x206 ../SemaforoNet_bsp/\libucosii_bsp.a(tk_misc.o)
 .debug_info    0x0006528c      0x1f3 ../SemaforoNet_bsp/\libucosii_bsp.a(alt_iniche_fcntl.o)
 .debug_info    0x0006547f     0x125f ../SemaforoNet_bsp/\libucosii_bsp.a(et_arp.o)
 .debug_info    0x000666de      0xf7d ../SemaforoNet_bsp/\libucosii_bsp.a(iface.o)
 .debug_info    0x0006765b     0x16ea ../SemaforoNet_bsp/\libucosii_bsp.a(ip.o)
 .debug_info    0x00068d45     0x184e ../SemaforoNet_bsp/\libucosii_bsp.a(ip_reasm.o)
 .debug_info    0x0006a593      0xdcf ../SemaforoNet_bsp/\libucosii_bsp.a(ipdemux.o)
 .debug_info    0x0006b362      0xa2b ../SemaforoNet_bsp/\libucosii_bsp.a(ipmc.o)
 .debug_info    0x0006bd8d      0x2c9 ../SemaforoNet_bsp/\libucosii_bsp.a(ipport.o)
 .debug_info    0x0006c056      0xf3c ../SemaforoNet_bsp/\libucosii_bsp.a(ipraw.o)
 .debug_info    0x0006cf92      0xee7 ../SemaforoNet_bsp/\libucosii_bsp.a(iproute.o)
 .debug_info    0x0006de79     0x127e ../SemaforoNet_bsp/\libucosii_bsp.a(udp.o)
 .debug_info    0x0006f0f7     0x1118 ../SemaforoNet_bsp/\libucosii_bsp.a(igmp.o)
 .debug_info    0x0007020f     0x134c ../SemaforoNet_bsp/\libucosii_bsp.a(igmp2.o)
 .debug_info    0x0007155b     0x10c7 ../SemaforoNet_bsp/\libucosii_bsp.a(ipopt.o)
 .debug_info    0x00072622      0xb9f ../SemaforoNet_bsp/\libucosii_bsp.a(u_mctest.o)
 .debug_info    0x000731c1      0xa3d ../SemaforoNet_bsp/\libucosii_bsp.a(dhcsetup.o)
 .debug_info    0x00073bfe      0x725 ../SemaforoNet_bsp/\libucosii_bsp.a(memdev.o)
 .debug_info    0x00074323      0x3ca ../SemaforoNet_bsp/\libucosii_bsp.a(tcpcksum.o)
 .debug_info    0x000746ed     0x1299 ../SemaforoNet_bsp/\libucosii_bsp.a(in_pcb.o)
 .debug_info    0x00075986      0xfca ../SemaforoNet_bsp/\libucosii_bsp.a(vfsfiles.o)
 .debug_info    0x00076950      0x199 ../SemaforoNet_bsp/\libucosii_bsp.a(vfsport.o)
 .debug_info    0x00076ae9       0x70 ../SemaforoNet_bsp/\libucosii_bsp.a(alt_exception_entry.o)
 .debug_info    0x00076b59      0x6e6 ../SemaforoNet_bsp/\libucosii_bsp.a(alt_fcntl.o)
 .debug_info    0x0007723f      0x459 ../SemaforoNet_bsp/\libucosii_bsp.a(alt_find_file.o)
 .debug_info    0x00077698      0x5eb ../SemaforoNet_bsp/\libucosii_bsp.a(alt_get_fd.o)
 .debug_info    0x00077c83     0x116c ../SemaforoNet_bsp/\libucosii_bsp.a(icmp.o)
 .debug_info    0x00078def      0x181 c:/altera/13.0sp1/nios2eds/bin/gnu/h-i686-mingw32/bin/../lib/gcc/nios2-elf/4.1.2/../../../../nios2-elf/lib\libc.a(lib_a-atexit.o)
 .debug_info    0x00078f70      0x960 c:/altera/13.0sp1/nios2eds/bin/gnu/h-i686-mingw32/bin/../lib/gcc/nios2-elf/4.1.2/../../../../nios2-elf/lib\libc.a(lib_a-atoi.o)
 .debug_info    0x000798d0      0x954 c:/altera/13.0sp1/nios2eds/bin/gnu/h-i686-mingw32/bin/../lib/gcc/nios2-elf/4.1.2/../../../../nios2-elf/lib\libc.a(lib_a-calloc.o)
 .debug_info    0x0007a224      0x115 c:/altera/13.0sp1/nios2eds/bin/gnu/h-i686-mingw32/bin/../lib/gcc/nios2-elf/4.1.2/../../../../nios2-elf/lib\libc.a(lib_a-memcmp.o)
 .debug_info    0x0007a339      0x110 c:/altera/13.0sp1/nios2eds/bin/gnu/h-i686-mingw32/bin/../lib/gcc/nios2-elf/4.1.2/../../../../nios2-elf/lib\libc.a(lib_a-strcpy.o)
 .debug_info    0x0007a449       0xf5 c:/altera/13.0sp1/nios2eds/bin/gnu/h-i686-mingw32/bin/../lib/gcc/nios2-elf/4.1.2/../../../../nios2-elf/lib\libc.a(lib_a-strncmp.o)
 .debug_info    0x0007a53e      0x9aa c:/altera/13.0sp1/nios2eds/bin/gnu/h-i686-mingw32/bin/../lib/gcc/nios2-elf/4.1.2/../../../../nios2-elf/lib\libc.a(lib_a-vprintf.o)
 .debug_info    0x0007aee8      0x9ed c:/altera/13.0sp1/nios2eds/bin/gnu/h-i686-mingw32/bin/../lib/gcc/nios2-elf/4.1.2/../../../../nios2-elf/lib\libc.a(lib_a-vsprintf.o)
 .debug_info    0x0007b8d5      0x99c c:/altera/13.0sp1/nios2eds/bin/gnu/h-i686-mingw32/bin/../lib/gcc/nios2-elf/4.1.2/../../../../nios2-elf/lib\libc.a(lib_a-__atexit.o)

.debug_abbrev   0x00000000    0x123a5
 *(.debug_abbrev)
 .debug_abbrev  0x00000000       0x14 ../SemaforoNet_bsp//obj/HAL/src/crt0.o
 .debug_abbrev  0x00000014      0x1f1 obj/default/alt_error_handler.o
 .debug_abbrev  0x00000205      0x231 obj/default/dm9000a.o
 .debug_abbrev  0x00000436       0xf5 obj/default/led.o
 .debug_abbrev  0x0000052b      0x16a obj/default/main.o
 .debug_abbrev  0x00000695      0x2ad obj/default/network_utilities.o
 .debug_abbrev  0x00000942      0x1c4 obj/default/simple_socket_server.o
 .debug_abbrev  0x00000b06        0x1 obj/default/tse_my_system.o
 .debug_abbrev  0x00000b07       0x5d c:/altera/13.0sp1/nios2eds/bin/gnu/h-i686-mingw32/bin/../lib/gcc/nios2-elf/4.1.2\libgcc.a(_fixunsdfsi.o)
 .debug_abbrev  0x00000b64      0x1d2 c:/altera/13.0sp1/nios2eds/bin/gnu/h-i686-mingw32/bin/../lib/gcc/nios2-elf/4.1.2\libgcc.a(_addsub_df.o)
 .debug_abbrev  0x00000d36      0x204 c:/altera/13.0sp1/nios2eds/bin/gnu/h-i686-mingw32/bin/../lib/gcc/nios2-elf/4.1.2\libgcc.a(_mul_df.o)
 .debug_abbrev  0x00000f3a      0x151 c:/altera/13.0sp1/nios2eds/bin/gnu/h-i686-mingw32/bin/../lib/gcc/nios2-elf/4.1.2\libgcc.a(_ge_df.o)
 .debug_abbrev  0x0000108b      0x176 c:/altera/13.0sp1/nios2eds/bin/gnu/h-i686-mingw32/bin/../lib/gcc/nios2-elf/4.1.2\libgcc.a(_df_to_si.o)
 .debug_abbrev  0x00001201       0xba c:/altera/13.0sp1/nios2eds/bin/gnu/h-i686-mingw32/bin/../lib/gcc/nios2-elf/4.1.2\libgcc.a(_thenan_df.o)
 .debug_abbrev  0x000012bb      0x155 c:/altera/13.0sp1/nios2eds/bin/gnu/h-i686-mingw32/bin/../lib/gcc/nios2-elf/4.1.2\libgcc.a(_usi_to_df.o)
 .debug_abbrev  0x00001410       0xee c:/altera/13.0sp1/nios2eds/bin/gnu/h-i686-mingw32/bin/../lib/gcc/nios2-elf/4.1.2\libgcc.a(_muldi3.o)
 .debug_abbrev  0x000014fe       0xb9 c:/altera/13.0sp1/nios2eds/bin/gnu/h-i686-mingw32/bin/../lib/gcc/nios2-elf/4.1.2\libgcc.a(_clzsi2.o)
 .debug_abbrev  0x000015b7      0x1b1 c:/altera/13.0sp1/nios2eds/bin/gnu/h-i686-mingw32/bin/../lib/gcc/nios2-elf/4.1.2\libgcc.a(_pack_df.o)
 .debug_abbrev  0x00001768      0x149 c:/altera/13.0sp1/nios2eds/bin/gnu/h-i686-mingw32/bin/../lib/gcc/nios2-elf/4.1.2\libgcc.a(_unpack_df.o)
 .debug_abbrev  0x000018b1      0x132 c:/altera/13.0sp1/nios2eds/bin/gnu/h-i686-mingw32/bin/../lib/gcc/nios2-elf/4.1.2\libgcc.a(_fpcmp_parts_df.o)
 .debug_abbrev  0x000019e3       0x61 c:/altera/13.0sp1/nios2eds/bin/gnu/h-i686-mingw32/bin/../lib/gcc/nios2-elf/4.1.2\libgcc.a(_clz.o)
 .debug_abbrev  0x00001a44       0x61 c:/altera/13.0sp1/nios2eds/bin/gnu/h-i686-mingw32/bin/../lib/gcc/nios2-elf/4.1.2/../../../../nios2-elf/lib\libc.a(lib_a-ctype_.o)
 .debug_abbrev  0x00001aa5      0x16e c:/altera/13.0sp1/nios2eds/bin/gnu/h-i686-mingw32/bin/../lib/gcc/nios2-elf/4.1.2/../../../../nios2-elf/lib\libc.a(lib_a-exit.o)
 .debug_abbrev  0x00001c13      0x197 c:/altera/13.0sp1/nios2eds/bin/gnu/h-i686-mingw32/bin/../lib/gcc/nios2-elf/4.1.2/../../../../nios2-elf/lib\libc.a(lib_a-fprintf.o)
 .debug_abbrev  0x00001daa      0x1b1 c:/altera/13.0sp1/nios2eds/bin/gnu/h-i686-mingw32/bin/../lib/gcc/nios2-elf/4.1.2/../../../../nios2-elf/lib\libc.a(lib_a-fwrite.o)
 .debug_abbrev  0x00001f5b      0x17f c:/altera/13.0sp1/nios2eds/bin/gnu/h-i686-mingw32/bin/../lib/gcc/nios2-elf/4.1.2/../../../../nios2-elf/lib\libc.a(lib_a-getc.o)
 .debug_abbrev  0x000020da      0x157 c:/altera/13.0sp1/nios2eds/bin/gnu/h-i686-mingw32/bin/../lib/gcc/nios2-elf/4.1.2/../../../../nios2-elf/lib\libc.a(lib_a-impure.o)
 .debug_abbrev  0x00002231      0x187 c:/altera/13.0sp1/nios2eds/bin/gnu/h-i686-mingw32/bin/../lib/gcc/nios2-elf/4.1.2/../../../../nios2-elf/lib\libc.a(lib_a-malloc.o)
 .debug_abbrev  0x000023b8      0x216 c:/altera/13.0sp1/nios2eds/bin/gnu/h-i686-mingw32/bin/../lib/gcc/nios2-elf/4.1.2/../../../../nios2-elf/lib\libc.a(lib_a-mallocr.o)
 .debug_abbrev  0x000025ce       0xb5 c:/altera/13.0sp1/nios2eds/bin/gnu/h-i686-mingw32/bin/../lib/gcc/nios2-elf/4.1.2/../../../../nios2-elf/lib\libc.a(lib_a-memcpy.o)
 .debug_abbrev  0x00002683       0xb5 c:/altera/13.0sp1/nios2eds/bin/gnu/h-i686-mingw32/bin/../lib/gcc/nios2-elf/4.1.2/../../../../nios2-elf/lib\libc.a(lib_a-memmove.o)
 .debug_abbrev  0x00002738       0xb8 c:/altera/13.0sp1/nios2eds/bin/gnu/h-i686-mingw32/bin/../lib/gcc/nios2-elf/4.1.2/../../../../nios2-elf/lib\libc.a(lib_a-memset.o)
 .debug_abbrev  0x000027f0      0x194 c:/altera/13.0sp1/nios2eds/bin/gnu/h-i686-mingw32/bin/../lib/gcc/nios2-elf/4.1.2/../../../../nios2-elf/lib\libc.a(lib_a-perror.o)
 .debug_abbrev  0x00002984      0x191 c:/altera/13.0sp1/nios2eds/bin/gnu/h-i686-mingw32/bin/../lib/gcc/nios2-elf/4.1.2/../../../../nios2-elf/lib\libc.a(lib_a-printf.o)
 .debug_abbrev  0x00002b15      0x17f c:/altera/13.0sp1/nios2eds/bin/gnu/h-i686-mingw32/bin/../lib/gcc/nios2-elf/4.1.2/../../../../nios2-elf/lib\libc.a(lib_a-putc.o)
 .debug_abbrev  0x00002c94      0x170 c:/altera/13.0sp1/nios2eds/bin/gnu/h-i686-mingw32/bin/../lib/gcc/nios2-elf/4.1.2/../../../../nios2-elf/lib\libc.a(lib_a-putchar.o)
 .debug_abbrev  0x00002e04      0x1ac c:/altera/13.0sp1/nios2eds/bin/gnu/h-i686-mingw32/bin/../lib/gcc/nios2-elf/4.1.2/../../../../nios2-elf/lib\libc.a(lib_a-puts.o)
 .debug_abbrev  0x00002fb0      0x189 c:/altera/13.0sp1/nios2eds/bin/gnu/h-i686-mingw32/bin/../lib/gcc/nios2-elf/4.1.2/../../../../nios2-elf/lib\libc.a(lib_a-rget.o)
 .debug_abbrev  0x00003139      0x18c c:/altera/13.0sp1/nios2eds/bin/gnu/h-i686-mingw32/bin/../lib/gcc/nios2-elf/4.1.2/../../../../nios2-elf/lib\libc.a(lib_a-sbrkr.o)
 .debug_abbrev  0x000032c5      0x191 c:/altera/13.0sp1/nios2eds/bin/gnu/h-i686-mingw32/bin/../lib/gcc/nios2-elf/4.1.2/../../../../nios2-elf/lib\libc.a(lib_a-sprintf.o)
 .debug_abbrev  0x00003456       0x80 c:/altera/13.0sp1/nios2eds/bin/gnu/h-i686-mingw32/bin/../lib/gcc/nios2-elf/4.1.2/../../../../nios2-elf/lib\libc.a(lib_a-strchr.o)
 .debug_abbrev  0x000034d6       0x80 c:/altera/13.0sp1/nios2eds/bin/gnu/h-i686-mingw32/bin/../lib/gcc/nios2-elf/4.1.2/../../../../nios2-elf/lib\libc.a(lib_a-strcmp.o)
 .debug_abbrev  0x00003556       0x68 c:/altera/13.0sp1/nios2eds/bin/gnu/h-i686-mingw32/bin/../lib/gcc/nios2-elf/4.1.2/../../../../nios2-elf/lib\libc.a(lib_a-strerror.o)
 .debug_abbrev  0x000035be       0x8b c:/altera/13.0sp1/nios2eds/bin/gnu/h-i686-mingw32/bin/../lib/gcc/nios2-elf/4.1.2/../../../../nios2-elf/lib\libc.a(lib_a-strlen.o)
 .debug_abbrev  0x00003649       0x9c c:/altera/13.0sp1/nios2eds/bin/gnu/h-i686-mingw32/bin/../lib/gcc/nios2-elf/4.1.2/../../../../nios2-elf/lib\libc.a(lib_a-strncpy.o)
 .debug_abbrev  0x000036e5      0x1c7 c:/altera/13.0sp1/nios2eds/bin/gnu/h-i686-mingw32/bin/../lib/gcc/nios2-elf/4.1.2/../../../../nios2-elf/lib\libc.a(lib_a-strtol.o)
 .debug_abbrev  0x000038ac       0x5b c:/altera/13.0sp1/nios2eds/bin/gnu/h-i686-mingw32/bin/../lib/gcc/nios2-elf/4.1.2/../../../../nios2-elf/lib\libc.a(lib_a-u_strerr.o)
 .debug_abbrev  0x00003907      0x30a c:/altera/13.0sp1/nios2eds/bin/gnu/h-i686-mingw32/bin/../lib/gcc/nios2-elf/4.1.2/../../../../nios2-elf/lib\libc.a(lib_a-vfprintf.o)
 .debug_abbrev  0x00003c11      0x198 c:/altera/13.0sp1/nios2eds/bin/gnu/h-i686-mingw32/bin/../lib/gcc/nios2-elf/4.1.2/../../../../nios2-elf/lib\libc.a(lib_a-wbuf.o)
 .debug_abbrev  0x00003da9      0x170 c:/altera/13.0sp1/nios2eds/bin/gnu/h-i686-mingw32/bin/../lib/gcc/nios2-elf/4.1.2/../../../../nios2-elf/lib\libc.a(lib_a-wsetup.o)
 .debug_abbrev  0x00003f19      0x1de c:/altera/13.0sp1/nios2eds/bin/gnu/h-i686-mingw32/bin/../lib/gcc/nios2-elf/4.1.2/../../../../nios2-elf/lib\libc.a(lib_a-__call_atexit.o)
 .debug_abbrev  0x000040f7      0x232 c:/altera/13.0sp1/nios2eds/bin/gnu/h-i686-mingw32/bin/../lib/gcc/nios2-elf/4.1.2/../../../../nios2-elf/lib\libc.a(lib_a-dtoa.o)
 .debug_abbrev  0x00004329      0x1c6 c:/altera/13.0sp1/nios2eds/bin/gnu/h-i686-mingw32/bin/../lib/gcc/nios2-elf/4.1.2/../../../../nios2-elf/lib\libc.a(lib_a-fflush.o)
 .debug_abbrev  0x000044ef      0x24c c:/altera/13.0sp1/nios2eds/bin/gnu/h-i686-mingw32/bin/../lib/gcc/nios2-elf/4.1.2/../../../../nios2-elf/lib\libc.a(lib_a-findfp.o)
 .debug_abbrev  0x0000473b      0x18c c:/altera/13.0sp1/nios2eds/bin/gnu/h-i686-mingw32/bin/../lib/gcc/nios2-elf/4.1.2/../../../../nios2-elf/lib\libc.a(lib_a-fputc.o)
 .debug_abbrev  0x000048c7      0x1aa c:/altera/13.0sp1/nios2eds/bin/gnu/h-i686-mingw32/bin/../lib/gcc/nios2-elf/4.1.2/../../../../nios2-elf/lib\libc.a(lib_a-fputs.o)
 .debug_abbrev  0x00004a71      0x1d9 c:/altera/13.0sp1/nios2eds/bin/gnu/h-i686-mingw32/bin/../lib/gcc/nios2-elf/4.1.2/../../../../nios2-elf/lib\libc.a(lib_a-freer.o)
 .debug_abbrev  0x00004c4a      0x1a3 c:/altera/13.0sp1/nios2eds/bin/gnu/h-i686-mingw32/bin/../lib/gcc/nios2-elf/4.1.2/../../../../nios2-elf/lib\libc.a(lib_a-fvwrite.o)
 .debug_abbrev  0x00004ded      0x1e3 c:/altera/13.0sp1/nios2eds/bin/gnu/h-i686-mingw32/bin/../lib/gcc/nios2-elf/4.1.2/../../../../nios2-elf/lib\libc.a(lib_a-fwalk.o)
 .debug_abbrev  0x00004fd0       0x3b c:/altera/13.0sp1/nios2eds/bin/gnu/h-i686-mingw32/bin/../lib/gcc/nios2-elf/4.1.2/../../../../nios2-elf/lib\libc.a(lib_a-int_errno.o)
 .debug_abbrev  0x0000500b      0x1ed c:/altera/13.0sp1/nios2eds/bin/gnu/h-i686-mingw32/bin/../lib/gcc/nios2-elf/4.1.2/../../../../nios2-elf/lib\libc.a(lib_a-locale.o)
 .debug_abbrev  0x000051f8      0x197 c:/altera/13.0sp1/nios2eds/bin/gnu/h-i686-mingw32/bin/../lib/gcc/nios2-elf/4.1.2/../../../../nios2-elf/lib\libc.a(lib_a-makebuf.o)
 .debug_abbrev  0x0000538f       0xb5 c:/altera/13.0sp1/nios2eds/bin/gnu/h-i686-mingw32/bin/../lib/gcc/nios2-elf/4.1.2/../../../../nios2-elf/lib\libc.a(lib_a-memchr.o)
 .debug_abbrev  0x00005444      0x297 c:/altera/13.0sp1/nios2eds/bin/gnu/h-i686-mingw32/bin/../lib/gcc/nios2-elf/4.1.2/../../../../nios2-elf/lib\libc.a(lib_a-mprec.o)
 .debug_abbrev  0x000056db      0x1c3 c:/altera/13.0sp1/nios2eds/bin/gnu/h-i686-mingw32/bin/../lib/gcc/nios2-elf/4.1.2/../../../../nios2-elf/lib\libc.a(lib_a-reallocr.o)
 .debug_abbrev  0x0000589e      0x187 c:/altera/13.0sp1/nios2eds/bin/gnu/h-i686-mingw32/bin/../lib/gcc/nios2-elf/4.1.2/../../../../nios2-elf/lib\libc.a(lib_a-refill.o)
 .debug_abbrev  0x00005a25       0x79 c:/altera/13.0sp1/nios2eds/bin/gnu/h-i686-mingw32/bin/../lib/gcc/nios2-elf/4.1.2/../../../../nios2-elf/lib\libc.a(lib_a-s_isinfd.o)
 .debug_abbrev  0x00005a9e       0x79 c:/altera/13.0sp1/nios2eds/bin/gnu/h-i686-mingw32/bin/../lib/gcc/nios2-elf/4.1.2/../../../../nios2-elf/lib\libc.a(lib_a-s_isnand.o)
 .debug_abbrev  0x00005b17      0x1c9 c:/altera/13.0sp1/nios2eds/bin/gnu/h-i686-mingw32/bin/../lib/gcc/nios2-elf/4.1.2/../../../../nios2-elf/lib\libc.a(lib_a-stdio.o)
 .debug_abbrev  0x00005ce0      0x184 c:/altera/13.0sp1/nios2eds/bin/gnu/h-i686-mingw32/bin/../lib/gcc/nios2-elf/4.1.2/../../../../nios2-elf/lib\libc.a(lib_a-writer.o)
 .debug_abbrev  0x00005e64      0x1b8 c:/altera/13.0sp1/nios2eds/bin/gnu/h-i686-mingw32/bin/../lib/gcc/nios2-elf/4.1.2/../../../../nios2-elf/lib\libc.a(lib_a-callocr.o)
 .debug_abbrev  0x0000601c      0x17f c:/altera/13.0sp1/nios2eds/bin/gnu/h-i686-mingw32/bin/../lib/gcc/nios2-elf/4.1.2/../../../../nios2-elf/lib\libc.a(lib_a-closer.o)
 .debug_abbrev  0x0000619b      0x1a7 c:/altera/13.0sp1/nios2eds/bin/gnu/h-i686-mingw32/bin/../lib/gcc/nios2-elf/4.1.2/../../../../nios2-elf/lib\libc.a(lib_a-fclose.o)
 .debug_abbrev  0x00006342      0x18e c:/altera/13.0sp1/nios2eds/bin/gnu/h-i686-mingw32/bin/../lib/gcc/nios2-elf/4.1.2/../../../../nios2-elf/lib\libc.a(lib_a-fstatr.o)
 .debug_abbrev  0x000064d0      0x17f c:/altera/13.0sp1/nios2eds/bin/gnu/h-i686-mingw32/bin/../lib/gcc/nios2-elf/4.1.2/../../../../nios2-elf/lib\libc.a(lib_a-isattyr.o)
 .debug_abbrev  0x0000664f      0x18e c:/altera/13.0sp1/nios2eds/bin/gnu/h-i686-mingw32/bin/../lib/gcc/nios2-elf/4.1.2/../../../../nios2-elf/lib\libc.a(lib_a-lseekr.o)
 .debug_abbrev  0x000067dd      0x17f c:/altera/13.0sp1/nios2eds/bin/gnu/h-i686-mingw32/bin/../lib/gcc/nios2-elf/4.1.2/../../../../nios2-elf/lib\libc.a(lib_a-readr.o)
 .debug_abbrev  0x0000695c      0x16b c:/altera/13.0sp1/nios2eds/bin/gnu/h-i686-mingw32/bin/../lib/gcc/nios2-elf/4.1.2\libgcc.a(_udivdi3.o)
 .debug_abbrev  0x00006ac7      0x18e c:/altera/13.0sp1/nios2eds/bin/gnu/h-i686-mingw32/bin/../lib/gcc/nios2-elf/4.1.2\libgcc.a(_umoddi3.o)
 .debug_abbrev  0x00006c55      0x1e3 c:/altera/13.0sp1/nios2eds/bin/gnu/h-i686-mingw32/bin/../lib/gcc/nios2-elf/4.1.2\libgcc.a(_div_df.o)
 .debug_abbrev  0x00006e38      0x151 c:/altera/13.0sp1/nios2eds/bin/gnu/h-i686-mingw32/bin/../lib/gcc/nios2-elf/4.1.2\libgcc.a(_eq_df.o)
 .debug_abbrev  0x00006f89      0x151 c:/altera/13.0sp1/nios2eds/bin/gnu/h-i686-mingw32/bin/../lib/gcc/nios2-elf/4.1.2\libgcc.a(_ne_df.o)
 .debug_abbrev  0x000070da      0x151 c:/altera/13.0sp1/nios2eds/bin/gnu/h-i686-mingw32/bin/../lib/gcc/nios2-elf/4.1.2\libgcc.a(_gt_df.o)
 .debug_abbrev  0x0000722b      0x151 c:/altera/13.0sp1/nios2eds/bin/gnu/h-i686-mingw32/bin/../lib/gcc/nios2-elf/4.1.2\libgcc.a(_lt_df.o)
 .debug_abbrev  0x0000737c      0x13f c:/altera/13.0sp1/nios2eds/bin/gnu/h-i686-mingw32/bin/../lib/gcc/nios2-elf/4.1.2\libgcc.a(_si_to_df.o)
 .debug_abbrev  0x000074bb       0xe0 c:/altera/13.0sp1/nios2eds/bin/gnu/h-i686-mingw32/bin/../lib/gcc/nios2-elf/4.1.2\libgcc.a(lib2-divmod.o)
 .debug_abbrev  0x0000759b       0xaa ../SemaforoNet_bsp/\libucosii_bsp.a(alt_exit.o)
 .debug_abbrev  0x00007645      0x128 ../SemaforoNet_bsp/\libucosii_bsp.a(alt_flash_dev.o)
 .debug_abbrev  0x0000776d      0x102 ../SemaforoNet_bsp/\libucosii_bsp.a(alt_fstat.o)
 .debug_abbrev  0x0000786f      0x180 ../SemaforoNet_bsp/\libucosii_bsp.a(alt_irq_register.o)
 .debug_abbrev  0x000079ef       0x44 ../SemaforoNet_bsp/\libucosii_bsp.a(alt_irq_vars.o)
 .debug_abbrev  0x00007a33      0x102 ../SemaforoNet_bsp/\libucosii_bsp.a(alt_isatty.o)
 .debug_abbrev  0x00007b35      0x102 ../SemaforoNet_bsp/\libucosii_bsp.a(alt_lseek.o)
 .debug_abbrev  0x00007c37      0x120 ../SemaforoNet_bsp/\libucosii_bsp.a(alt_main.o)
 .debug_abbrev  0x00007d57      0x115 ../SemaforoNet_bsp/\libucosii_bsp.a(alt_sbrk.o)
 .debug_abbrev  0x00007e6c       0xb7 ../SemaforoNet_bsp/\libucosii_bsp.a(alt_usleep.o)
 .debug_abbrev  0x00007f23      0x1b3 ../SemaforoNet_bsp/\libucosii_bsp.a(alt_env_lock.o)
 .debug_abbrev  0x000080d6      0x234 ../SemaforoNet_bsp/\libucosii_bsp.a(alt_malloc_lock.o)
 .debug_abbrev  0x0000830a      0x2aa ../SemaforoNet_bsp/\libucosii_bsp.a(os_core.o)
 .debug_abbrev  0x000085b4      0x114 ../SemaforoNet_bsp/\libucosii_bsp.a(os_dbg.o)
 .debug_abbrev  0x000086c8      0x21b ../SemaforoNet_bsp/\libucosii_bsp.a(os_flag.o)
 .debug_abbrev  0x000088e3      0x235 ../SemaforoNet_bsp/\libucosii_bsp.a(os_mem.o)
 .debug_abbrev  0x00008b18      0x20d ../SemaforoNet_bsp/\libucosii_bsp.a(os_q.o)
 .debug_abbrev  0x00008d25      0x20d ../SemaforoNet_bsp/\libucosii_bsp.a(os_sem.o)
 .debug_abbrev  0x00008f32      0x20e ../SemaforoNet_bsp/\libucosii_bsp.a(os_task.o)
 .debug_abbrev  0x00009140      0x1de ../SemaforoNet_bsp/\libucosii_bsp.a(os_time.o)
 .debug_abbrev  0x0000931e      0x1c8 ../SemaforoNet_bsp/\libucosii_bsp.a(alt_sys_init.o)
 .debug_abbrev  0x000094e6      0x1bf ../SemaforoNet_bsp/\libucosii_bsp.a(altera_avalon_cfi_flash.o)
 .debug_abbrev  0x000096a5      0x185 ../SemaforoNet_bsp/\libucosii_bsp.a(altera_avalon_cfi_flash_table.o)
 .debug_abbrev  0x0000982a      0x1bf ../SemaforoNet_bsp/\libucosii_bsp.a(altera_avalon_epcs_flash_controller.o)
 .debug_abbrev  0x000099e9      0x13c ../SemaforoNet_bsp/\libucosii_bsp.a(altera_avalon_jtag_uart_fd.o)
 .debug_abbrev  0x00009b25      0x21e ../SemaforoNet_bsp/\libucosii_bsp.a(altera_avalon_jtag_uart_init.o)
 .debug_abbrev  0x00009d43      0x135 ../SemaforoNet_bsp/\libucosii_bsp.a(altera_avalon_jtag_uart_ioctl.o)
 .debug_abbrev  0x00009e78      0x1ee ../SemaforoNet_bsp/\libucosii_bsp.a(altera_avalon_jtag_uart_read.o)
 .debug_abbrev  0x0000a066      0x1ea ../SemaforoNet_bsp/\libucosii_bsp.a(altera_avalon_jtag_uart_write.o)
 .debug_abbrev  0x0000a250      0x235 ../SemaforoNet_bsp/\libucosii_bsp.a(altera_avalon_lcd_16207.o)
 .debug_abbrev  0x0000a485      0x12f ../SemaforoNet_bsp/\libucosii_bsp.a(altera_avalon_lcd_16207_fd.o)
 .debug_abbrev  0x0000a5b4      0x137 ../SemaforoNet_bsp/\libucosii_bsp.a(altera_avalon_timer_sc.o)
 .debug_abbrev  0x0000a6eb      0x124 ../SemaforoNet_bsp/\libucosii_bsp.a(altera_avalon_uart_fd.o)
 .debug_abbrev  0x0000a80f      0x204 ../SemaforoNet_bsp/\libucosii_bsp.a(altera_avalon_uart_init.o)
 .debug_abbrev  0x0000aa13      0x1b9 ../SemaforoNet_bsp/\libucosii_bsp.a(altera_avalon_uart_read.o)
 .debug_abbrev  0x0000abcc      0x1c0 ../SemaforoNet_bsp/\libucosii_bsp.a(altera_avalon_uart_write.o)
 .debug_abbrev  0x0000ad8c      0x145 ../SemaforoNet_bsp/\libucosii_bsp.a(epcs_commands.o)
 .debug_abbrev  0x0000aed1       0x77 ../SemaforoNet_bsp/\libucosii_bsp.a(alt_iniche_close.o)
 .debug_abbrev  0x0000af48      0x11f ../SemaforoNet_bsp/\libucosii_bsp.a(alt_iniche_dev.o)
 .debug_abbrev  0x0000b067       0x7e ../SemaforoNet_bsp/\libucosii_bsp.a(alt_iniche_read.o)
 .debug_abbrev  0x0000b0e5       0x85 ../SemaforoNet_bsp/\libucosii_bsp.a(alt_iniche_write.o)
 .debug_abbrev  0x0000b16a      0x184 ../SemaforoNet_bsp/\libucosii_bsp.a(ipnet.o)
 .debug_abbrev  0x0000b2ee      0x18b ../SemaforoNet_bsp/\libucosii_bsp.a(ipstart.o)
 .debug_abbrev  0x0000b479      0x191 ../SemaforoNet_bsp/\libucosii_bsp.a(igmp_cmn.o)
 .debug_abbrev  0x0000b60a      0x1a3 ../SemaforoNet_bsp/\libucosii_bsp.a(bsdsock.o)
 .debug_abbrev  0x0000b7ad       0x96 ../SemaforoNet_bsp/\libucosii_bsp.a(cksum.o)
 .debug_abbrev  0x0000b843      0x18b ../SemaforoNet_bsp/\libucosii_bsp.a(in_utils.o)
 .debug_abbrev  0x0000b9ce      0x152 ../SemaforoNet_bsp/\libucosii_bsp.a(netmain.o)
 .debug_abbrev  0x0000bb20      0x154 ../SemaforoNet_bsp/\libucosii_bsp.a(parseip.o)
 .debug_abbrev  0x0000bc74      0x144 ../SemaforoNet_bsp/\libucosii_bsp.a(tk_crnos.o)
 .debug_abbrev  0x0000bdb8      0x217 ../SemaforoNet_bsp/\libucosii_bsp.a(dhcpclnt.o)
 .debug_abbrev  0x0000bfcf       0x8f ../SemaforoNet_bsp/\libucosii_bsp.a(dhcputil.o)
 .debug_abbrev  0x0000c05e      0x196 ../SemaforoNet_bsp/\libucosii_bsp.a(pktalloc.o)
 .debug_abbrev  0x0000c1f4       0xcb ../SemaforoNet_bsp/\libucosii_bsp.a(q.o)
 .debug_abbrev  0x0000c2bf      0x144 ../SemaforoNet_bsp/\libucosii_bsp.a(udp_open.o)
 .debug_abbrev  0x0000c403       0x14 ../SemaforoNet_bsp/\libucosii_bsp.a(asm_cksum.o)
 .debug_abbrev  0x0000c417      0x242 ../SemaforoNet_bsp/\libucosii_bsp.a(brdutils.o)
 .debug_abbrev  0x0000c659      0x194 ../SemaforoNet_bsp/\libucosii_bsp.a(osportco.o)
 .debug_abbrev  0x0000c7ed      0x199 ../SemaforoNet_bsp/\libucosii_bsp.a(targnios.o)
 .debug_abbrev  0x0000c986      0x1dc ../SemaforoNet_bsp/\libucosii_bsp.a(nptcp.o)
 .debug_abbrev  0x0000cb62      0x136 ../SemaforoNet_bsp/\libucosii_bsp.a(rawsock.o)
 .debug_abbrev  0x0000cc98      0x1de ../SemaforoNet_bsp/\libucosii_bsp.a(sockcall.o)
 .debug_abbrev  0x0000ce76      0x1ef ../SemaforoNet_bsp/\libucosii_bsp.a(socket.o)
 .debug_abbrev  0x0000d065      0x1ac ../SemaforoNet_bsp/\libucosii_bsp.a(socket2.o)
 .debug_abbrev  0x0000d211      0x17f ../SemaforoNet_bsp/\libucosii_bsp.a(soselect.o)
 .debug_abbrev  0x0000d390      0x1ca ../SemaforoNet_bsp/\libucosii_bsp.a(tcp_in.o)
 .debug_abbrev  0x0000d55a      0x1a4 ../SemaforoNet_bsp/\libucosii_bsp.a(tcp_out.o)
 .debug_abbrev  0x0000d6fe      0x1c3 ../SemaforoNet_bsp/\libucosii_bsp.a(tcp_subr.o)
 .debug_abbrev  0x0000d8c1      0x19e ../SemaforoNet_bsp/\libucosii_bsp.a(tcp_timr.o)
 .debug_abbrev  0x0000da5f      0x175 ../SemaforoNet_bsp/\libucosii_bsp.a(tcp_usr.o)
 .debug_abbrev  0x0000dbd4       0x77 ../SemaforoNet_bsp/\libucosii_bsp.a(tcpport.o)
 .debug_abbrev  0x0000dc4b      0x190 ../SemaforoNet_bsp/\libucosii_bsp.a(udpsock.o)
 .debug_abbrev  0x0000dddb      0x172 ../SemaforoNet_bsp/\libucosii_bsp.a(alt_alarm_start.o)
 .debug_abbrev  0x0000df4d       0x6c ../SemaforoNet_bsp/\libucosii_bsp.a(alt_busy_sleep.o)
 .debug_abbrev  0x0000dfb9      0x102 ../SemaforoNet_bsp/\libucosii_bsp.a(alt_close.o)
 .debug_abbrev  0x0000e0bb       0x7a ../SemaforoNet_bsp/\libucosii_bsp.a(alt_dcache_flush.o)
 .debug_abbrev  0x0000e135      0x10a ../SemaforoNet_bsp/\libucosii_bsp.a(alt_dev.o)
 .debug_abbrev  0x0000e23f       0xf6 ../SemaforoNet_bsp/\libucosii_bsp.a(alt_dev_llist_insert.o)
 .debug_abbrev  0x0000e335       0x76 ../SemaforoNet_bsp/\libucosii_bsp.a(alt_do_ctors.o)
 .debug_abbrev  0x0000e3ab       0x76 ../SemaforoNet_bsp/\libucosii_bsp.a(alt_do_dtors.o)
 .debug_abbrev  0x0000e421       0x5e ../SemaforoNet_bsp/\libucosii_bsp.a(alt_errno.o)
 .debug_abbrev  0x0000e47f       0xd6 ../SemaforoNet_bsp/\libucosii_bsp.a(alt_find_dev.o)
 .debug_abbrev  0x0000e555      0x134 ../SemaforoNet_bsp/\libucosii_bsp.a(alt_iic.o)
 .debug_abbrev  0x0000e689      0x14e ../SemaforoNet_bsp/\libucosii_bsp.a(alt_iic_isr_register.o)
 .debug_abbrev  0x0000e7d7       0xf7 ../SemaforoNet_bsp/\libucosii_bsp.a(alt_io_redirect.o)
 .debug_abbrev  0x0000e8ce       0x12 ../SemaforoNet_bsp/\libucosii_bsp.a(alt_irq_entry.o)
 .debug_abbrev  0x0000e8e0      0x124 ../SemaforoNet_bsp/\libucosii_bsp.a(alt_irq_handler.o)
 .debug_abbrev  0x0000ea04      0x119 ../SemaforoNet_bsp/\libucosii_bsp.a(alt_open.o)
 .debug_abbrev  0x0000eb1d      0x102 ../SemaforoNet_bsp/\libucosii_bsp.a(alt_read.o)
 .debug_abbrev  0x0000ec1f       0xd3 ../SemaforoNet_bsp/\libucosii_bsp.a(alt_release_fd.o)
 .debug_abbrev  0x0000ecf2       0x74 ../SemaforoNet_bsp/\libucosii_bsp.a(alt_remap_cached.o)
 .debug_abbrev  0x0000ed66       0x74 ../SemaforoNet_bsp/\libucosii_bsp.a(alt_remap_uncached.o)
 .debug_abbrev  0x0000edda      0x150 ../SemaforoNet_bsp/\libucosii_bsp.a(alt_tick.o)
 .debug_abbrev  0x0000ef2a      0x107 ../SemaforoNet_bsp/\libucosii_bsp.a(alt_write.o)
 .debug_abbrev  0x0000f031       0x3f ../SemaforoNet_bsp/\libucosii_bsp.a(altera_nios2_qsys_irq.o)
 .debug_abbrev  0x0000f070       0x14 ../SemaforoNet_bsp/\libucosii_bsp.a(os_cpu_a.o)
 .debug_abbrev  0x0000f084      0x1d0 ../SemaforoNet_bsp/\libucosii_bsp.a(os_cpu_c.o)
 .debug_abbrev  0x0000f254      0x14d ../SemaforoNet_bsp/\libucosii_bsp.a(altera_avalon_cfi_flash_amd.o)
 .debug_abbrev  0x0000f3a1      0x14d ../SemaforoNet_bsp/\libucosii_bsp.a(altera_avalon_cfi_flash_intel.o)
 .debug_abbrev  0x0000f4ee       0x7c ../SemaforoNet_bsp/\libucosii_bsp.a(altera_avalon_spi.o)
 .debug_abbrev  0x0000f56a      0x173 ../SemaforoNet_bsp/\libucosii_bsp.a(allports.o)
 .debug_abbrev  0x0000f6dd      0x151 ../SemaforoNet_bsp/\libucosii_bsp.a(timeouts.o)
 .debug_abbrev  0x0000f82e       0xa4 ../SemaforoNet_bsp/\libucosii_bsp.a(tk_misc.o)
 .debug_abbrev  0x0000f8d2       0x92 ../SemaforoNet_bsp/\libucosii_bsp.a(alt_iniche_fcntl.o)
 .debug_abbrev  0x0000f964      0x1eb ../SemaforoNet_bsp/\libucosii_bsp.a(et_arp.o)
 .debug_abbrev  0x0000fb4f      0x13d ../SemaforoNet_bsp/\libucosii_bsp.a(iface.o)
 .debug_abbrev  0x0000fc8c      0x1ed ../SemaforoNet_bsp/\libucosii_bsp.a(ip.o)
 .debug_abbrev  0x0000fe79      0x1ca ../SemaforoNet_bsp/\libucosii_bsp.a(ip_reasm.o)
 .debug_abbrev  0x00010043      0x166 ../SemaforoNet_bsp/\libucosii_bsp.a(ipdemux.o)
 .debug_abbrev  0x000101a9      0x114 ../SemaforoNet_bsp/\libucosii_bsp.a(ipmc.o)
 .debug_abbrev  0x000102bd       0xe9 ../SemaforoNet_bsp/\libucosii_bsp.a(ipport.o)
 .debug_abbrev  0x000103a6      0x19c ../SemaforoNet_bsp/\libucosii_bsp.a(ipraw.o)
 .debug_abbrev  0x00010542      0x156 ../SemaforoNet_bsp/\libucosii_bsp.a(iproute.o)
 .debug_abbrev  0x00010698      0x1c0 ../SemaforoNet_bsp/\libucosii_bsp.a(udp.o)
 .debug_abbrev  0x00010858      0x10e ../SemaforoNet_bsp/\libucosii_bsp.a(igmp.o)
 .debug_abbrev  0x00010966      0x17a ../SemaforoNet_bsp/\libucosii_bsp.a(igmp2.o)
 .debug_abbrev  0x00010ae0      0x189 ../SemaforoNet_bsp/\libucosii_bsp.a(ipopt.o)
 .debug_abbrev  0x00010c69      0x15a ../SemaforoNet_bsp/\libucosii_bsp.a(u_mctest.o)
 .debug_abbrev  0x00010dc3      0x12e ../SemaforoNet_bsp/\libucosii_bsp.a(dhcsetup.o)
 .debug_abbrev  0x00010ef1      0x175 ../SemaforoNet_bsp/\libucosii_bsp.a(memdev.o)
 .debug_abbrev  0x00011066       0xad ../SemaforoNet_bsp/\libucosii_bsp.a(tcpcksum.o)
 .debug_abbrev  0x00011113      0x19f ../SemaforoNet_bsp/\libucosii_bsp.a(in_pcb.o)
 .debug_abbrev  0x000112b2      0x1b6 ../SemaforoNet_bsp/\libucosii_bsp.a(vfsfiles.o)
 .debug_abbrev  0x00011468       0x77 ../SemaforoNet_bsp/\libucosii_bsp.a(vfsport.o)
 .debug_abbrev  0x000114df       0x12 ../SemaforoNet_bsp/\libucosii_bsp.a(alt_exception_entry.o)
 .debug_abbrev  0x000114f1      0x107 ../SemaforoNet_bsp/\libucosii_bsp.a(alt_fcntl.o)
 .debug_abbrev  0x000115f8       0xd6 ../SemaforoNet_bsp/\libucosii_bsp.a(alt_find_file.o)
 .debug_abbrev  0x000116ce      0x173 ../SemaforoNet_bsp/\libucosii_bsp.a(alt_get_fd.o)
 .debug_abbrev  0x00011841      0x15d ../SemaforoNet_bsp/\libucosii_bsp.a(icmp.o)
 .debug_abbrev  0x0001199e       0xb7 c:/altera/13.0sp1/nios2eds/bin/gnu/h-i686-mingw32/bin/../lib/gcc/nios2-elf/4.1.2/../../../../nios2-elf/lib\libc.a(lib_a-atexit.o)
 .debug_abbrev  0x00011a55      0x176 c:/altera/13.0sp1/nios2eds/bin/gnu/h-i686-mingw32/bin/../lib/gcc/nios2-elf/4.1.2/../../../../nios2-elf/lib\libc.a(lib_a-atoi.o)
 .debug_abbrev  0x00011bcb      0x17f c:/altera/13.0sp1/nios2eds/bin/gnu/h-i686-mingw32/bin/../lib/gcc/nios2-elf/4.1.2/../../../../nios2-elf/lib\libc.a(lib_a-calloc.o)
 .debug_abbrev  0x00011d4a       0x7c c:/altera/13.0sp1/nios2eds/bin/gnu/h-i686-mingw32/bin/../lib/gcc/nios2-elf/4.1.2/../../../../nios2-elf/lib\libc.a(lib_a-memcmp.o)
 .debug_abbrev  0x00011dc6       0x8f c:/altera/13.0sp1/nios2eds/bin/gnu/h-i686-mingw32/bin/../lib/gcc/nios2-elf/4.1.2/../../../../nios2-elf/lib\libc.a(lib_a-strcpy.o)
 .debug_abbrev  0x00011e55       0x8d c:/altera/13.0sp1/nios2eds/bin/gnu/h-i686-mingw32/bin/../lib/gcc/nios2-elf/4.1.2/../../../../nios2-elf/lib\libc.a(lib_a-strncmp.o)
 .debug_abbrev  0x00011ee2      0x170 c:/altera/13.0sp1/nios2eds/bin/gnu/h-i686-mingw32/bin/../lib/gcc/nios2-elf/4.1.2/../../../../nios2-elf/lib\libc.a(lib_a-vprintf.o)
 .debug_abbrev  0x00012052      0x1a5 c:/altera/13.0sp1/nios2eds/bin/gnu/h-i686-mingw32/bin/../lib/gcc/nios2-elf/4.1.2/../../../../nios2-elf/lib\libc.a(lib_a-vsprintf.o)
 .debug_abbrev  0x000121f7      0x1ae c:/altera/13.0sp1/nios2eds/bin/gnu/h-i686-mingw32/bin/../lib/gcc/nios2-elf/4.1.2/../../../../nios2-elf/lib\libc.a(lib_a-__atexit.o)

.debug_line     0x00000000    0x41740
 *(.debug_line)
 .debug_line    0x00000000       0x57 ../SemaforoNet_bsp//obj/HAL/src/crt0.o
 .debug_line    0x00000057      0x716 obj/default/alt_error_handler.o
 .debug_line    0x0000076d      0xac9 obj/default/dm9000a.o
 .debug_line    0x00001236      0x416 obj/default/led.o
 .debug_line    0x0000164c      0x64b obj/default/main.o
 .debug_line    0x00001c97      0x87a obj/default/network_utilities.o
 .debug_line    0x00002511      0x6f5 obj/default/simple_socket_server.o
 .debug_line    0x00002c06       0x24 obj/default/tse_my_system.o
 .debug_line    0x00002c2a       0xff c:/altera/13.0sp1/nios2eds/bin/gnu/h-i686-mingw32/bin/../lib/gcc/nios2-elf/4.1.2\libgcc.a(_fixunsdfsi.o)
 .debug_line    0x00002d29      0x430 c:/altera/13.0sp1/nios2eds/bin/gnu/h-i686-mingw32/bin/../lib/gcc/nios2-elf/4.1.2\libgcc.a(_addsub_df.o)
 .debug_line    0x00003159      0x3e5 c:/altera/13.0sp1/nios2eds/bin/gnu/h-i686-mingw32/bin/../lib/gcc/nios2-elf/4.1.2\libgcc.a(_mul_df.o)
 .debug_line    0x0000353e      0x129 c:/altera/13.0sp1/nios2eds/bin/gnu/h-i686-mingw32/bin/../lib/gcc/nios2-elf/4.1.2\libgcc.a(_ge_df.o)
 .debug_line    0x00003667      0x149 c:/altera/13.0sp1/nios2eds/bin/gnu/h-i686-mingw32/bin/../lib/gcc/nios2-elf/4.1.2\libgcc.a(_df_to_si.o)
 .debug_line    0x000037b0       0x94 c:/altera/13.0sp1/nios2eds/bin/gnu/h-i686-mingw32/bin/../lib/gcc/nios2-elf/4.1.2\libgcc.a(_thenan_df.o)
 .debug_line    0x00003844      0x189 c:/altera/13.0sp1/nios2eds/bin/gnu/h-i686-mingw32/bin/../lib/gcc/nios2-elf/4.1.2\libgcc.a(_usi_to_df.o)
 .debug_line    0x000039cd      0x11f c:/altera/13.0sp1/nios2eds/bin/gnu/h-i686-mingw32/bin/../lib/gcc/nios2-elf/4.1.2\libgcc.a(_muldi3.o)
 .debug_line    0x00003aec      0x105 c:/altera/13.0sp1/nios2eds/bin/gnu/h-i686-mingw32/bin/../lib/gcc/nios2-elf/4.1.2\libgcc.a(_clzsi2.o)
 .debug_line    0x00003bf1      0x222 c:/altera/13.0sp1/nios2eds/bin/gnu/h-i686-mingw32/bin/../lib/gcc/nios2-elf/4.1.2\libgcc.a(_pack_df.o)
 .debug_line    0x00003e13      0x1e4 c:/altera/13.0sp1/nios2eds/bin/gnu/h-i686-mingw32/bin/../lib/gcc/nios2-elf/4.1.2\libgcc.a(_unpack_df.o)
 .debug_line    0x00003ff7      0x187 c:/altera/13.0sp1/nios2eds/bin/gnu/h-i686-mingw32/bin/../lib/gcc/nios2-elf/4.1.2\libgcc.a(_fpcmp_parts_df.o)
 .debug_line    0x0000417e       0xaa c:/altera/13.0sp1/nios2eds/bin/gnu/h-i686-mingw32/bin/../lib/gcc/nios2-elf/4.1.2\libgcc.a(_clz.o)
 .debug_line    0x00004228       0x7e c:/altera/13.0sp1/nios2eds/bin/gnu/h-i686-mingw32/bin/../lib/gcc/nios2-elf/4.1.2/../../../../nios2-elf/lib\libc.a(lib_a-ctype_.o)
 .debug_line    0x000042a6      0x238 c:/altera/13.0sp1/nios2eds/bin/gnu/h-i686-mingw32/bin/../lib/gcc/nios2-elf/4.1.2/../../../../nios2-elf/lib\libc.a(lib_a-exit.o)
 .debug_line    0x000044de      0x284 c:/altera/13.0sp1/nios2eds/bin/gnu/h-i686-mingw32/bin/../lib/gcc/nios2-elf/4.1.2/../../../../nios2-elf/lib\libc.a(lib_a-fprintf.o)
 .debug_line    0x00004762      0x2d9 c:/altera/13.0sp1/nios2eds/bin/gnu/h-i686-mingw32/bin/../lib/gcc/nios2-elf/4.1.2/../../../../nios2-elf/lib\libc.a(lib_a-fwrite.o)
 .debug_line    0x00004a3b      0x2a4 c:/altera/13.0sp1/nios2eds/bin/gnu/h-i686-mingw32/bin/../lib/gcc/nios2-elf/4.1.2/../../../../nios2-elf/lib\libc.a(lib_a-getc.o)
 .debug_line    0x00004cdf      0x22d c:/altera/13.0sp1/nios2eds/bin/gnu/h-i686-mingw32/bin/../lib/gcc/nios2-elf/4.1.2/../../../../nios2-elf/lib\libc.a(lib_a-impure.o)
 .debug_line    0x00004f0c      0x24b c:/altera/13.0sp1/nios2eds/bin/gnu/h-i686-mingw32/bin/../lib/gcc/nios2-elf/4.1.2/../../../../nios2-elf/lib\libc.a(lib_a-malloc.o)
 .debug_line    0x00005157      0x80a c:/altera/13.0sp1/nios2eds/bin/gnu/h-i686-mingw32/bin/../lib/gcc/nios2-elf/4.1.2/../../../../nios2-elf/lib\libc.a(lib_a-mallocr.o)
 .debug_line    0x00005961      0x1ac c:/altera/13.0sp1/nios2eds/bin/gnu/h-i686-mingw32/bin/../lib/gcc/nios2-elf/4.1.2/../../../../nios2-elf/lib\libc.a(lib_a-memcpy.o)
 .debug_line    0x00005b0d      0x30a c:/altera/13.0sp1/nios2eds/bin/gnu/h-i686-mingw32/bin/../lib/gcc/nios2-elf/4.1.2/../../../../nios2-elf/lib\libc.a(lib_a-memmove.o)
 .debug_line    0x00005e17      0x301 c:/altera/13.0sp1/nios2eds/bin/gnu/h-i686-mingw32/bin/../lib/gcc/nios2-elf/4.1.2/../../../../nios2-elf/lib\libc.a(lib_a-memset.o)
 .debug_line    0x00006118      0x2a4 c:/altera/13.0sp1/nios2eds/bin/gnu/h-i686-mingw32/bin/../lib/gcc/nios2-elf/4.1.2/../../../../nios2-elf/lib\libc.a(lib_a-perror.o)
 .debug_line    0x000063bc      0x29b c:/altera/13.0sp1/nios2eds/bin/gnu/h-i686-mingw32/bin/../lib/gcc/nios2-elf/4.1.2/../../../../nios2-elf/lib\libc.a(lib_a-printf.o)
 .debug_line    0x00006657      0x2c4 c:/altera/13.0sp1/nios2eds/bin/gnu/h-i686-mingw32/bin/../lib/gcc/nios2-elf/4.1.2/../../../../nios2-elf/lib\libc.a(lib_a-putc.o)
 .debug_line    0x0000691b      0x264 c:/altera/13.0sp1/nios2eds/bin/gnu/h-i686-mingw32/bin/../lib/gcc/nios2-elf/4.1.2/../../../../nios2-elf/lib\libc.a(lib_a-putchar.o)
 .debug_line    0x00006b7f      0x2f7 c:/altera/13.0sp1/nios2eds/bin/gnu/h-i686-mingw32/bin/../lib/gcc/nios2-elf/4.1.2/../../../../nios2-elf/lib\libc.a(lib_a-puts.o)
 .debug_line    0x00006e76      0x28d c:/altera/13.0sp1/nios2eds/bin/gnu/h-i686-mingw32/bin/../lib/gcc/nios2-elf/4.1.2/../../../../nios2-elf/lib\libc.a(lib_a-rget.o)
 .debug_line    0x00007103      0x299 c:/altera/13.0sp1/nios2eds/bin/gnu/h-i686-mingw32/bin/../lib/gcc/nios2-elf/4.1.2/../../../../nios2-elf/lib\libc.a(lib_a-sbrkr.o)
 .debug_line    0x0000739c      0x322 c:/altera/13.0sp1/nios2eds/bin/gnu/h-i686-mingw32/bin/../lib/gcc/nios2-elf/4.1.2/../../../../nios2-elf/lib\libc.a(lib_a-sprintf.o)
 .debug_line    0x000076be      0x2c7 c:/altera/13.0sp1/nios2eds/bin/gnu/h-i686-mingw32/bin/../lib/gcc/nios2-elf/4.1.2/../../../../nios2-elf/lib\libc.a(lib_a-strchr.o)
 .debug_line    0x00007985      0x2d5 c:/altera/13.0sp1/nios2eds/bin/gnu/h-i686-mingw32/bin/../lib/gcc/nios2-elf/4.1.2/../../../../nios2-elf/lib\libc.a(lib_a-strcmp.o)
 .debug_line    0x00007c5a      0x4e1 c:/altera/13.0sp1/nios2eds/bin/gnu/h-i686-mingw32/bin/../lib/gcc/nios2-elf/4.1.2/../../../../nios2-elf/lib\libc.a(lib_a-strerror.o)
 .debug_line    0x0000813b      0x26d c:/altera/13.0sp1/nios2eds/bin/gnu/h-i686-mingw32/bin/../lib/gcc/nios2-elf/4.1.2/../../../../nios2-elf/lib\libc.a(lib_a-strlen.o)
 .debug_line    0x000083a8      0x2d0 c:/altera/13.0sp1/nios2eds/bin/gnu/h-i686-mingw32/bin/../lib/gcc/nios2-elf/4.1.2/../../../../nios2-elf/lib\libc.a(lib_a-strncpy.o)
 .debug_line    0x00008678      0x403 c:/altera/13.0sp1/nios2eds/bin/gnu/h-i686-mingw32/bin/../lib/gcc/nios2-elf/4.1.2/../../../../nios2-elf/lib\libc.a(lib_a-strtol.o)
 .debug_line    0x00008a7b       0x91 c:/altera/13.0sp1/nios2eds/bin/gnu/h-i686-mingw32/bin/../lib/gcc/nios2-elf/4.1.2/../../../../nios2-elf/lib\libc.a(lib_a-u_strerr.o)
 .debug_line    0x00008b0c     0x110c c:/altera/13.0sp1/nios2eds/bin/gnu/h-i686-mingw32/bin/../lib/gcc/nios2-elf/4.1.2/../../../../nios2-elf/lib\libc.a(lib_a-vfprintf.o)
 .debug_line    0x00009c18      0x350 c:/altera/13.0sp1/nios2eds/bin/gnu/h-i686-mingw32/bin/../lib/gcc/nios2-elf/4.1.2/../../../../nios2-elf/lib\libc.a(lib_a-wbuf.o)
 .debug_line    0x00009f68      0x2f0 c:/altera/13.0sp1/nios2eds/bin/gnu/h-i686-mingw32/bin/../lib/gcc/nios2-elf/4.1.2/../../../../nios2-elf/lib\libc.a(lib_a-wsetup.o)
 .debug_line    0x0000a258      0x367 c:/altera/13.0sp1/nios2eds/bin/gnu/h-i686-mingw32/bin/../lib/gcc/nios2-elf/4.1.2/../../../../nios2-elf/lib\libc.a(lib_a-__call_atexit.o)
 .debug_line    0x0000a5bf     0x12c6 c:/altera/13.0sp1/nios2eds/bin/gnu/h-i686-mingw32/bin/../lib/gcc/nios2-elf/4.1.2/../../../../nios2-elf/lib\libc.a(lib_a-dtoa.o)
 .debug_line    0x0000b885      0x40d c:/altera/13.0sp1/nios2eds/bin/gnu/h-i686-mingw32/bin/../lib/gcc/nios2-elf/4.1.2/../../../../nios2-elf/lib\libc.a(lib_a-fflush.o)
 .debug_line    0x0000bc92      0x601 c:/altera/13.0sp1/nios2eds/bin/gnu/h-i686-mingw32/bin/../lib/gcc/nios2-elf/4.1.2/../../../../nios2-elf/lib\libc.a(lib_a-findfp.o)
 .debug_line    0x0000c293      0x285 c:/altera/13.0sp1/nios2eds/bin/gnu/h-i686-mingw32/bin/../lib/gcc/nios2-elf/4.1.2/../../../../nios2-elf/lib\libc.a(lib_a-fputc.o)
 .debug_line    0x0000c518      0x2c8 c:/altera/13.0sp1/nios2eds/bin/gnu/h-i686-mingw32/bin/../lib/gcc/nios2-elf/4.1.2/../../../../nios2-elf/lib\libc.a(lib_a-fputs.o)
 .debug_line    0x0000c7e0      0x5eb c:/altera/13.0sp1/nios2eds/bin/gnu/h-i686-mingw32/bin/../lib/gcc/nios2-elf/4.1.2/../../../../nios2-elf/lib\libc.a(lib_a-freer.o)
 .debug_line    0x0000cdcb      0x641 c:/altera/13.0sp1/nios2eds/bin/gnu/h-i686-mingw32/bin/../lib/gcc/nios2-elf/4.1.2/../../../../nios2-elf/lib\libc.a(lib_a-fvwrite.o)
 .debug_line    0x0000d40c      0x34a c:/altera/13.0sp1/nios2eds/bin/gnu/h-i686-mingw32/bin/../lib/gcc/nios2-elf/4.1.2/../../../../nios2-elf/lib\libc.a(lib_a-fwalk.o)
 .debug_line    0x0000d756      0x1df c:/altera/13.0sp1/nios2eds/bin/gnu/h-i686-mingw32/bin/../lib/gcc/nios2-elf/4.1.2/../../../../nios2-elf/lib\libc.a(lib_a-int_errno.o)
 .debug_line    0x0000d935      0x2c8 c:/altera/13.0sp1/nios2eds/bin/gnu/h-i686-mingw32/bin/../lib/gcc/nios2-elf/4.1.2/../../../../nios2-elf/lib\libc.a(lib_a-locale.o)
 .debug_line    0x0000dbfd      0x3c3 c:/altera/13.0sp1/nios2eds/bin/gnu/h-i686-mingw32/bin/../lib/gcc/nios2-elf/4.1.2/../../../../nios2-elf/lib\libc.a(lib_a-makebuf.o)
 .debug_line    0x0000dfc0      0x303 c:/altera/13.0sp1/nios2eds/bin/gnu/h-i686-mingw32/bin/../lib/gcc/nios2-elf/4.1.2/../../../../nios2-elf/lib\libc.a(lib_a-memchr.o)
 .debug_line    0x0000e2c3     0x1243 c:/altera/13.0sp1/nios2eds/bin/gnu/h-i686-mingw32/bin/../lib/gcc/nios2-elf/4.1.2/../../../../nios2-elf/lib\libc.a(lib_a-mprec.o)
 .debug_line    0x0000f506      0x58a c:/altera/13.0sp1/nios2eds/bin/gnu/h-i686-mingw32/bin/../lib/gcc/nios2-elf/4.1.2/../../../../nios2-elf/lib\libc.a(lib_a-reallocr.o)
 .debug_line    0x0000fa90      0x3c4 c:/altera/13.0sp1/nios2eds/bin/gnu/h-i686-mingw32/bin/../lib/gcc/nios2-elf/4.1.2/../../../../nios2-elf/lib\libc.a(lib_a-refill.o)
 .debug_line    0x0000fe54      0x222 c:/altera/13.0sp1/nios2eds/bin/gnu/h-i686-mingw32/bin/../lib/gcc/nios2-elf/4.1.2/../../../../nios2-elf/lib\libc.a(lib_a-s_isinfd.o)
 .debug_line    0x00010076      0x21a c:/altera/13.0sp1/nios2eds/bin/gnu/h-i686-mingw32/bin/../lib/gcc/nios2-elf/4.1.2/../../../../nios2-elf/lib\libc.a(lib_a-s_isnand.o)
 .debug_line    0x00010290      0x38c c:/altera/13.0sp1/nios2eds/bin/gnu/h-i686-mingw32/bin/../lib/gcc/nios2-elf/4.1.2/../../../../nios2-elf/lib\libc.a(lib_a-stdio.o)
 .debug_line    0x0001061c      0x29a c:/altera/13.0sp1/nios2eds/bin/gnu/h-i686-mingw32/bin/../lib/gcc/nios2-elf/4.1.2/../../../../nios2-elf/lib\libc.a(lib_a-writer.o)
 .debug_line    0x000108b6      0x25c c:/altera/13.0sp1/nios2eds/bin/gnu/h-i686-mingw32/bin/../lib/gcc/nios2-elf/4.1.2/../../../../nios2-elf/lib\libc.a(lib_a-callocr.o)
 .debug_line    0x00010b12      0x29a c:/altera/13.0sp1/nios2eds/bin/gnu/h-i686-mingw32/bin/../lib/gcc/nios2-elf/4.1.2/../../../../nios2-elf/lib\libc.a(lib_a-closer.o)
 .debug_line    0x00010dac      0x2e8 c:/altera/13.0sp1/nios2eds/bin/gnu/h-i686-mingw32/bin/../lib/gcc/nios2-elf/4.1.2/../../../../nios2-elf/lib\libc.a(lib_a-fclose.o)
 .debug_line    0x00011094      0x264 c:/altera/13.0sp1/nios2eds/bin/gnu/h-i686-mingw32/bin/../lib/gcc/nios2-elf/4.1.2/../../../../nios2-elf/lib\libc.a(lib_a-fstatr.o)
 .debug_line    0x000112f8      0x29b c:/altera/13.0sp1/nios2eds/bin/gnu/h-i686-mingw32/bin/../lib/gcc/nios2-elf/4.1.2/../../../../nios2-elf/lib\libc.a(lib_a-isattyr.o)
 .debug_line    0x00011593      0x29a c:/altera/13.0sp1/nios2eds/bin/gnu/h-i686-mingw32/bin/../lib/gcc/nios2-elf/4.1.2/../../../../nios2-elf/lib\libc.a(lib_a-lseekr.o)
 .debug_line    0x0001182d      0x299 c:/altera/13.0sp1/nios2eds/bin/gnu/h-i686-mingw32/bin/../lib/gcc/nios2-elf/4.1.2/../../../../nios2-elf/lib\libc.a(lib_a-readr.o)
 .debug_line    0x00011ac6      0x2f2 c:/altera/13.0sp1/nios2eds/bin/gnu/h-i686-mingw32/bin/../lib/gcc/nios2-elf/4.1.2\libgcc.a(_udivdi3.o)
 .debug_line    0x00011db8      0x37d c:/altera/13.0sp1/nios2eds/bin/gnu/h-i686-mingw32/bin/../lib/gcc/nios2-elf/4.1.2\libgcc.a(_umoddi3.o)
 .debug_line    0x00012135      0x301 c:/altera/13.0sp1/nios2eds/bin/gnu/h-i686-mingw32/bin/../lib/gcc/nios2-elf/4.1.2\libgcc.a(_div_df.o)
 .debug_line    0x00012436      0x129 c:/altera/13.0sp1/nios2eds/bin/gnu/h-i686-mingw32/bin/../lib/gcc/nios2-elf/4.1.2\libgcc.a(_eq_df.o)
 .debug_line    0x0001255f      0x129 c:/altera/13.0sp1/nios2eds/bin/gnu/h-i686-mingw32/bin/../lib/gcc/nios2-elf/4.1.2\libgcc.a(_ne_df.o)
 .debug_line    0x00012688      0x129 c:/altera/13.0sp1/nios2eds/bin/gnu/h-i686-mingw32/bin/../lib/gcc/nios2-elf/4.1.2\libgcc.a(_gt_df.o)
 .debug_line    0x000127b1      0x129 c:/altera/13.0sp1/nios2eds/bin/gnu/h-i686-mingw32/bin/../lib/gcc/nios2-elf/4.1.2\libgcc.a(_lt_df.o)
 .debug_line    0x000128da      0x175 c:/altera/13.0sp1/nios2eds/bin/gnu/h-i686-mingw32/bin/../lib/gcc/nios2-elf/4.1.2\libgcc.a(_si_to_df.o)
 .debug_line    0x00012a4f      0x24f c:/altera/13.0sp1/nios2eds/bin/gnu/h-i686-mingw32/bin/../lib/gcc/nios2-elf/4.1.2\libgcc.a(lib2-divmod.o)
 .debug_line    0x00012c9e      0x276 ../SemaforoNet_bsp/\libucosii_bsp.a(alt_exit.o)
 .debug_line    0x00012f14      0x2c8 ../SemaforoNet_bsp/\libucosii_bsp.a(alt_flash_dev.o)
 .debug_line    0x000131dc      0x301 ../SemaforoNet_bsp/\libucosii_bsp.a(alt_fstat.o)
 .debug_line    0x000134dd      0x36d ../SemaforoNet_bsp/\libucosii_bsp.a(alt_irq_register.o)
 .debug_line    0x0001384a       0x72 ../SemaforoNet_bsp/\libucosii_bsp.a(alt_irq_vars.o)
 .debug_line    0x000138bc      0x302 ../SemaforoNet_bsp/\libucosii_bsp.a(alt_isatty.o)
 .debug_line    0x00013bbe      0x301 ../SemaforoNet_bsp/\libucosii_bsp.a(alt_lseek.o)
 .debug_line    0x00013ebf      0x349 ../SemaforoNet_bsp/\libucosii_bsp.a(alt_main.o)
 .debug_line    0x00014208      0x261 ../SemaforoNet_bsp/\libucosii_bsp.a(alt_sbrk.o)
 .debug_line    0x00014469      0x2ad ../SemaforoNet_bsp/\libucosii_bsp.a(alt_usleep.o)
 .debug_line    0x00014716      0x2bf ../SemaforoNet_bsp/\libucosii_bsp.a(alt_env_lock.o)
 .debug_line    0x000149d5      0x37b ../SemaforoNet_bsp/\libucosii_bsp.a(alt_malloc_lock.o)
 .debug_line    0x00014d50     0x1663 ../SemaforoNet_bsp/\libucosii_bsp.a(os_core.o)
 .debug_line    0x000163b3      0x388 ../SemaforoNet_bsp/\libucosii_bsp.a(os_dbg.o)
 .debug_line    0x0001673b     0x11e7 ../SemaforoNet_bsp/\libucosii_bsp.a(os_flag.o)
 .debug_line    0x00017922      0x78a ../SemaforoNet_bsp/\libucosii_bsp.a(os_mem.o)
 .debug_line    0x000180ac      0xe6b ../SemaforoNet_bsp/\libucosii_bsp.a(os_q.o)
 .debug_line    0x00018f17      0xa23 ../SemaforoNet_bsp/\libucosii_bsp.a(os_sem.o)
 .debug_line    0x0001993a     0x112c ../SemaforoNet_bsp/\libucosii_bsp.a(os_task.o)
 .debug_line    0x0001aa66      0x52f ../SemaforoNet_bsp/\libucosii_bsp.a(os_time.o)
 .debug_line    0x0001af95      0x404 ../SemaforoNet_bsp/\libucosii_bsp.a(alt_sys_init.o)
 .debug_line    0x0001b399      0x573 ../SemaforoNet_bsp/\libucosii_bsp.a(altera_avalon_cfi_flash.o)
 .debug_line    0x0001b90c      0x979 ../SemaforoNet_bsp/\libucosii_bsp.a(altera_avalon_cfi_flash_table.o)
 .debug_line    0x0001c285      0x6ef ../SemaforoNet_bsp/\libucosii_bsp.a(altera_avalon_epcs_flash_controller.o)
 .debug_line    0x0001c974      0x319 ../SemaforoNet_bsp/\libucosii_bsp.a(altera_avalon_jtag_uart_fd.o)
 .debug_line    0x0001cc8d      0x598 ../SemaforoNet_bsp/\libucosii_bsp.a(altera_avalon_jtag_uart_init.o)
 .debug_line    0x0001d225      0x356 ../SemaforoNet_bsp/\libucosii_bsp.a(altera_avalon_jtag_uart_ioctl.o)
 .debug_line    0x0001d57b      0x494 ../SemaforoNet_bsp/\libucosii_bsp.a(altera_avalon_jtag_uart_read.o)
 .debug_line    0x0001da0f      0x4a2 ../SemaforoNet_bsp/\libucosii_bsp.a(altera_avalon_jtag_uart_write.o)
 .debug_line    0x0001deb1      0x940 ../SemaforoNet_bsp/\libucosii_bsp.a(altera_avalon_lcd_16207.o)
 .debug_line    0x0001e7f1      0x2b9 ../SemaforoNet_bsp/\libucosii_bsp.a(altera_avalon_lcd_16207_fd.o)
 .debug_line    0x0001eaaa      0x2b3 ../SemaforoNet_bsp/\libucosii_bsp.a(altera_avalon_timer_sc.o)
 .debug_line    0x0001ed5d      0x2f7 ../SemaforoNet_bsp/\libucosii_bsp.a(altera_avalon_uart_fd.o)
 .debug_line    0x0001f054      0x567 ../SemaforoNet_bsp/\libucosii_bsp.a(altera_avalon_uart_init.o)
 .debug_line    0x0001f5bb      0x4b3 ../SemaforoNet_bsp/\libucosii_bsp.a(altera_avalon_uart_read.o)
 .debug_line    0x0001fa6e      0x495 ../SemaforoNet_bsp/\libucosii_bsp.a(altera_avalon_uart_write.o)
 .debug_line    0x0001ff03      0x408 ../SemaforoNet_bsp/\libucosii_bsp.a(epcs_commands.o)
 .debug_line    0x0002030b      0x347 ../SemaforoNet_bsp/\libucosii_bsp.a(alt_iniche_close.o)
 .debug_line    0x00020652      0x3ea ../SemaforoNet_bsp/\libucosii_bsp.a(alt_iniche_dev.o)
 .debug_line    0x00020a3c      0x346 ../SemaforoNet_bsp/\libucosii_bsp.a(alt_iniche_read.o)
 .debug_line    0x00020d82      0x357 ../SemaforoNet_bsp/\libucosii_bsp.a(alt_iniche_write.o)
 .debug_line    0x000210d9      0x7a6 ../SemaforoNet_bsp/\libucosii_bsp.a(ipnet.o)
 .debug_line    0x0002187f      0x4e7 ../SemaforoNet_bsp/\libucosii_bsp.a(ipstart.o)
 .debug_line    0x00021d66      0x91c ../SemaforoNet_bsp/\libucosii_bsp.a(igmp_cmn.o)
 .debug_line    0x00022682      0x6c7 ../SemaforoNet_bsp/\libucosii_bsp.a(bsdsock.o)
 .debug_line    0x00022d49      0x30a ../SemaforoNet_bsp/\libucosii_bsp.a(cksum.o)
 .debug_line    0x00023053      0x7a9 ../SemaforoNet_bsp/\libucosii_bsp.a(in_utils.o)
 .debug_line    0x000237fc      0x43f ../SemaforoNet_bsp/\libucosii_bsp.a(netmain.o)
 .debug_line    0x00023c3b      0x64d ../SemaforoNet_bsp/\libucosii_bsp.a(parseip.o)
 .debug_line    0x00024288      0x5a8 ../SemaforoNet_bsp/\libucosii_bsp.a(tk_crnos.o)
 .debug_line    0x00024830     0x1069 ../SemaforoNet_bsp/\libucosii_bsp.a(dhcpclnt.o)
 .debug_line    0x00025899      0x2ff ../SemaforoNet_bsp/\libucosii_bsp.a(dhcputil.o)
 .debug_line    0x00025b98      0x649 ../SemaforoNet_bsp/\libucosii_bsp.a(pktalloc.o)
 .debug_line    0x000261e1      0x3db ../SemaforoNet_bsp/\libucosii_bsp.a(q.o)
 .debug_line    0x000265bc      0x46e ../SemaforoNet_bsp/\libucosii_bsp.a(udp_open.o)
 .debug_line    0x00026a2a       0xaf ../SemaforoNet_bsp/\libucosii_bsp.a(asm_cksum.o)
 .debug_line    0x00026ad9      0x472 ../SemaforoNet_bsp/\libucosii_bsp.a(brdutils.o)
 .debug_line    0x00026f4b      0x4ff ../SemaforoNet_bsp/\libucosii_bsp.a(osportco.o)
 .debug_line    0x0002744a      0x63e ../SemaforoNet_bsp/\libucosii_bsp.a(targnios.o)
 .debug_line    0x00027a88      0xf23 ../SemaforoNet_bsp/\libucosii_bsp.a(nptcp.o)
 .debug_line    0x000289ab      0x848 ../SemaforoNet_bsp/\libucosii_bsp.a(rawsock.o)
 .debug_line    0x000291f3      0xe36 ../SemaforoNet_bsp/\libucosii_bsp.a(sockcall.o)
 .debug_line    0x0002a029     0x12b8 ../SemaforoNet_bsp/\libucosii_bsp.a(socket.o)
 .debug_line    0x0002b2e1      0xbec ../SemaforoNet_bsp/\libucosii_bsp.a(socket2.o)
 .debug_line    0x0002becd      0x72d ../SemaforoNet_bsp/\libucosii_bsp.a(soselect.o)
 .debug_line    0x0002c5fa     0x15ee ../SemaforoNet_bsp/\libucosii_bsp.a(tcp_in.o)
 .debug_line    0x0002dbe8      0xa59 ../SemaforoNet_bsp/\libucosii_bsp.a(tcp_out.o)
 .debug_line    0x0002e641      0x7c3 ../SemaforoNet_bsp/\libucosii_bsp.a(tcp_subr.o)
 .debug_line    0x0002ee04      0x613 ../SemaforoNet_bsp/\libucosii_bsp.a(tcp_timr.o)
 .debug_line    0x0002f417      0x8a2 ../SemaforoNet_bsp/\libucosii_bsp.a(tcp_usr.o)
 .debug_line    0x0002fcb9      0x33f ../SemaforoNet_bsp/\libucosii_bsp.a(tcpport.o)
 .debug_line    0x0002fff8      0x959 ../SemaforoNet_bsp/\libucosii_bsp.a(udpsock.o)
 .debug_line    0x00030951      0x2dc ../SemaforoNet_bsp/\libucosii_bsp.a(alt_alarm_start.o)
 .debug_line    0x00030c2d      0x25c ../SemaforoNet_bsp/\libucosii_bsp.a(alt_busy_sleep.o)
 .debug_line    0x00030e89      0x2f9 ../SemaforoNet_bsp/\libucosii_bsp.a(alt_close.o)
 .debug_line    0x00031182      0x1e1 ../SemaforoNet_bsp/\libucosii_bsp.a(alt_dcache_flush.o)
 .debug_line    0x00031363      0x2ba ../SemaforoNet_bsp/\libucosii_bsp.a(alt_dev.o)
 .debug_line    0x0003161d      0x25a ../SemaforoNet_bsp/\libucosii_bsp.a(alt_dev_llist_insert.o)
 .debug_line    0x00031877       0x83 ../SemaforoNet_bsp/\libucosii_bsp.a(alt_do_ctors.o)
 .debug_line    0x000318fa       0x83 ../SemaforoNet_bsp/\libucosii_bsp.a(alt_do_dtors.o)
 .debug_line    0x0003197d      0x1aa ../SemaforoNet_bsp/\libucosii_bsp.a(alt_errno.o)
 .debug_line    0x00031b27      0x2da ../SemaforoNet_bsp/\libucosii_bsp.a(alt_find_dev.o)
 .debug_line    0x00031e01      0x2c8 ../SemaforoNet_bsp/\libucosii_bsp.a(alt_iic.o)
 .debug_line    0x000320c9      0x249 ../SemaforoNet_bsp/\libucosii_bsp.a(alt_iic_isr_register.o)
 .debug_line    0x00032312      0x323 ../SemaforoNet_bsp/\libucosii_bsp.a(alt_io_redirect.o)
 .debug_line    0x00032635       0x6b ../SemaforoNet_bsp/\libucosii_bsp.a(alt_irq_entry.o)
 .debug_line    0x000326a0      0x2c4 ../SemaforoNet_bsp/\libucosii_bsp.a(alt_irq_handler.o)
 .debug_line    0x00032964      0x35f ../SemaforoNet_bsp/\libucosii_bsp.a(alt_open.o)
 .debug_line    0x00032cc3      0x328 ../SemaforoNet_bsp/\libucosii_bsp.a(alt_read.o)
 .debug_line    0x00032feb      0x279 ../SemaforoNet_bsp/\libucosii_bsp.a(alt_release_fd.o)
 .debug_line    0x00033264      0x1b9 ../SemaforoNet_bsp/\libucosii_bsp.a(alt_remap_cached.o)
 .debug_line    0x0003341d      0x1c3 ../SemaforoNet_bsp/\libucosii_bsp.a(alt_remap_uncached.o)
 .debug_line    0x000335e0      0x316 ../SemaforoNet_bsp/\libucosii_bsp.a(alt_tick.o)
 .debug_line    0x000338f6      0x329 ../SemaforoNet_bsp/\libucosii_bsp.a(alt_write.o)
 .debug_line    0x00033c1f      0x1ce ../SemaforoNet_bsp/\libucosii_bsp.a(altera_nios2_qsys_irq.o)
 .debug_line    0x00033ded       0x86 ../SemaforoNet_bsp/\libucosii_bsp.a(os_cpu_a.o)
 .debug_line    0x00033e73      0x330 ../SemaforoNet_bsp/\libucosii_bsp.a(os_cpu_c.o)
 .debug_line    0x000341a3      0x445 ../SemaforoNet_bsp/\libucosii_bsp.a(altera_avalon_cfi_flash_amd.o)
 .debug_line    0x000345e8      0x437 ../SemaforoNet_bsp/\libucosii_bsp.a(altera_avalon_cfi_flash_intel.o)
 .debug_line    0x00034a1f      0x1f2 ../SemaforoNet_bsp/\libucosii_bsp.a(altera_avalon_spi.o)
 .debug_line    0x00034c11      0x51f ../SemaforoNet_bsp/\libucosii_bsp.a(allports.o)
 .debug_line    0x00035130      0x483 ../SemaforoNet_bsp/\libucosii_bsp.a(timeouts.o)
 .debug_line    0x000355b3      0x370 ../SemaforoNet_bsp/\libucosii_bsp.a(tk_misc.o)
 .debug_line    0x00035923      0x38f ../SemaforoNet_bsp/\libucosii_bsp.a(alt_iniche_fcntl.o)
 .debug_line    0x00035cb2      0xca2 ../SemaforoNet_bsp/\libucosii_bsp.a(et_arp.o)
 .debug_line    0x00036954      0x479 ../SemaforoNet_bsp/\libucosii_bsp.a(iface.o)
 .debug_line    0x00036dcd      0xf95 ../SemaforoNet_bsp/\libucosii_bsp.a(ip.o)
 .debug_line    0x00037d62      0xf7c ../SemaforoNet_bsp/\libucosii_bsp.a(ip_reasm.o)
 .debug_line    0x00038cde      0x786 ../SemaforoNet_bsp/\libucosii_bsp.a(ipdemux.o)
 .debug_line    0x00039464      0x468 ../SemaforoNet_bsp/\libucosii_bsp.a(ipmc.o)
 .debug_line    0x000398cc      0x338 ../SemaforoNet_bsp/\libucosii_bsp.a(ipport.o)
 .debug_line    0x00039c04      0x5b9 ../SemaforoNet_bsp/\libucosii_bsp.a(ipraw.o)
 .debug_line    0x0003a1bd      0x5bb ../SemaforoNet_bsp/\libucosii_bsp.a(iproute.o)
 .debug_line    0x0003a778      0x7f6 ../SemaforoNet_bsp/\libucosii_bsp.a(udp.o)
 .debug_line    0x0003af6e      0x43a ../SemaforoNet_bsp/\libucosii_bsp.a(igmp.o)
 .debug_line    0x0003b3a8      0x62d ../SemaforoNet_bsp/\libucosii_bsp.a(igmp2.o)
 .debug_line    0x0003b9d5      0x711 ../SemaforoNet_bsp/\libucosii_bsp.a(ipopt.o)
 .debug_line    0x0003c0e6      0x5fb ../SemaforoNet_bsp/\libucosii_bsp.a(u_mctest.o)
 .debug_line    0x0003c6e1      0x43f ../SemaforoNet_bsp/\libucosii_bsp.a(dhcsetup.o)
 .debug_line    0x0003cb20      0x449 ../SemaforoNet_bsp/\libucosii_bsp.a(memdev.o)
 .debug_line    0x0003cf69      0x3b9 ../SemaforoNet_bsp/\libucosii_bsp.a(tcpcksum.o)
 .debug_line    0x0003d322      0x76d ../SemaforoNet_bsp/\libucosii_bsp.a(in_pcb.o)
 .debug_line    0x0003da8f      0xff7 ../SemaforoNet_bsp/\libucosii_bsp.a(vfsfiles.o)
 .debug_line    0x0003ea86      0x2c4 ../SemaforoNet_bsp/\libucosii_bsp.a(vfsport.o)
 .debug_line    0x0003ed4a       0xab ../SemaforoNet_bsp/\libucosii_bsp.a(alt_exception_entry.o)
 .debug_line    0x0003edf5      0x358 ../SemaforoNet_bsp/\libucosii_bsp.a(alt_fcntl.o)
 .debug_line    0x0003f14d      0x2eb ../SemaforoNet_bsp/\libucosii_bsp.a(alt_find_file.o)
 .debug_line    0x0003f438      0x31b ../SemaforoNet_bsp/\libucosii_bsp.a(alt_get_fd.o)
 .debug_line    0x0003f753      0x958 ../SemaforoNet_bsp/\libucosii_bsp.a(icmp.o)
 .debug_line    0x000400ab      0x200 c:/altera/13.0sp1/nios2eds/bin/gnu/h-i686-mingw32/bin/../lib/gcc/nios2-elf/4.1.2/../../../../nios2-elf/lib\libc.a(lib_a-atexit.o)
 .debug_line    0x000402ab      0x20a c:/altera/13.0sp1/nios2eds/bin/gnu/h-i686-mingw32/bin/../lib/gcc/nios2-elf/4.1.2/../../../../nios2-elf/lib\libc.a(lib_a-atoi.o)
 .debug_line    0x000404b5      0x20c c:/altera/13.0sp1/nios2eds/bin/gnu/h-i686-mingw32/bin/../lib/gcc/nios2-elf/4.1.2/../../../../nios2-elf/lib\libc.a(lib_a-calloc.o)
 .debug_line    0x000406c1      0x29f c:/altera/13.0sp1/nios2eds/bin/gnu/h-i686-mingw32/bin/../lib/gcc/nios2-elf/4.1.2/../../../../nios2-elf/lib\libc.a(lib_a-memcmp.o)
 .debug_line    0x00040960      0x287 c:/altera/13.0sp1/nios2eds/bin/gnu/h-i686-mingw32/bin/../lib/gcc/nios2-elf/4.1.2/../../../../nios2-elf/lib\libc.a(lib_a-strcpy.o)
 .debug_line    0x00040be7      0x2fe c:/altera/13.0sp1/nios2eds/bin/gnu/h-i686-mingw32/bin/../lib/gcc/nios2-elf/4.1.2/../../../../nios2-elf/lib\libc.a(lib_a-strncmp.o)
 .debug_line    0x00040ee5      0x26f c:/altera/13.0sp1/nios2eds/bin/gnu/h-i686-mingw32/bin/../lib/gcc/nios2-elf/4.1.2/../../../../nios2-elf/lib\libc.a(lib_a-vprintf.o)
 .debug_line    0x00041154      0x2d9 c:/altera/13.0sp1/nios2eds/bin/gnu/h-i686-mingw32/bin/../lib/gcc/nios2-elf/4.1.2/../../../../nios2-elf/lib\libc.a(lib_a-vsprintf.o)
 .debug_line    0x0004142d      0x313 c:/altera/13.0sp1/nios2eds/bin/gnu/h-i686-mingw32/bin/../lib/gcc/nios2-elf/4.1.2/../../../../nios2-elf/lib\libc.a(lib_a-__atexit.o)

.debug_frame    0x00000000     0x6690
 *(.debug_frame)
 .debug_frame   0x00000000       0x64 obj/default/alt_error_handler.o
 .debug_frame   0x00000064      0x19c obj/default/dm9000a.o
 .debug_frame   0x00000200       0x64 obj/default/led.o
 .debug_frame   0x00000264       0x88 obj/default/main.o
 .debug_frame   0x000002ec       0xd8 obj/default/network_utilities.o
 .debug_frame   0x000003c4       0xfc obj/default/simple_socket_server.o
 .debug_frame   0x000004c0       0x30 c:/altera/13.0sp1/nios2eds/bin/gnu/h-i686-mingw32/bin/../lib/gcc/nios2-elf/4.1.2\libgcc.a(_fixunsdfsi.o)
 .debug_frame   0x000004f0       0x70 c:/altera/13.0sp1/nios2eds/bin/gnu/h-i686-mingw32/bin/../lib/gcc/nios2-elf/4.1.2\libgcc.a(_addsub_df.o)
 .debug_frame   0x00000560       0x3c c:/altera/13.0sp1/nios2eds/bin/gnu/h-i686-mingw32/bin/../lib/gcc/nios2-elf/4.1.2\libgcc.a(_mul_df.o)
 .debug_frame   0x0000059c       0x2c c:/altera/13.0sp1/nios2eds/bin/gnu/h-i686-mingw32/bin/../lib/gcc/nios2-elf/4.1.2\libgcc.a(_ge_df.o)
 .debug_frame   0x000005c8       0x28 c:/altera/13.0sp1/nios2eds/bin/gnu/h-i686-mingw32/bin/../lib/gcc/nios2-elf/4.1.2\libgcc.a(_df_to_si.o)
 .debug_frame   0x000005f0       0x38 c:/altera/13.0sp1/nios2eds/bin/gnu/h-i686-mingw32/bin/../lib/gcc/nios2-elf/4.1.2\libgcc.a(_usi_to_df.o)
 .debug_frame   0x00000628       0x2c c:/altera/13.0sp1/nios2eds/bin/gnu/h-i686-mingw32/bin/../lib/gcc/nios2-elf/4.1.2\libgcc.a(_muldi3.o)
 .debug_frame   0x00000654       0x20 c:/altera/13.0sp1/nios2eds/bin/gnu/h-i686-mingw32/bin/../lib/gcc/nios2-elf/4.1.2\libgcc.a(_clzsi2.o)
 .debug_frame   0x00000674       0x2c c:/altera/13.0sp1/nios2eds/bin/gnu/h-i686-mingw32/bin/../lib/gcc/nios2-elf/4.1.2\libgcc.a(_pack_df.o)
 .debug_frame   0x000006a0       0x20 c:/altera/13.0sp1/nios2eds/bin/gnu/h-i686-mingw32/bin/../lib/gcc/nios2-elf/4.1.2\libgcc.a(_unpack_df.o)
 .debug_frame   0x000006c0       0x20 c:/altera/13.0sp1/nios2eds/bin/gnu/h-i686-mingw32/bin/../lib/gcc/nios2-elf/4.1.2\libgcc.a(_fpcmp_parts_df.o)
 .debug_frame   0x000006e0       0x28 c:/altera/13.0sp1/nios2eds/bin/gnu/h-i686-mingw32/bin/../lib/gcc/nios2-elf/4.1.2/../../../../nios2-elf/lib\libc.a(lib_a-exit.o)
 .debug_frame   0x00000708       0x40 c:/altera/13.0sp1/nios2eds/bin/gnu/h-i686-mingw32/bin/../lib/gcc/nios2-elf/4.1.2/../../../../nios2-elf/lib\libc.a(lib_a-fprintf.o)
 .debug_frame   0x00000748       0x48 c:/altera/13.0sp1/nios2eds/bin/gnu/h-i686-mingw32/bin/../lib/gcc/nios2-elf/4.1.2/../../../../nios2-elf/lib\libc.a(lib_a-fwrite.o)
 .debug_frame   0x00000790       0x48 c:/altera/13.0sp1/nios2eds/bin/gnu/h-i686-mingw32/bin/../lib/gcc/nios2-elf/4.1.2/../../../../nios2-elf/lib\libc.a(lib_a-getc.o)
 .debug_frame   0x000007d8       0x30 c:/altera/13.0sp1/nios2eds/bin/gnu/h-i686-mingw32/bin/../lib/gcc/nios2-elf/4.1.2/../../../../nios2-elf/lib\libc.a(lib_a-malloc.o)
 .debug_frame   0x00000808       0x38 c:/altera/13.0sp1/nios2eds/bin/gnu/h-i686-mingw32/bin/../lib/gcc/nios2-elf/4.1.2/../../../../nios2-elf/lib\libc.a(lib_a-mallocr.o)
 .debug_frame   0x00000840       0x20 c:/altera/13.0sp1/nios2eds/bin/gnu/h-i686-mingw32/bin/../lib/gcc/nios2-elf/4.1.2/../../../../nios2-elf/lib\libc.a(lib_a-memcpy.o)
 .debug_frame   0x00000860       0x20 c:/altera/13.0sp1/nios2eds/bin/gnu/h-i686-mingw32/bin/../lib/gcc/nios2-elf/4.1.2/../../../../nios2-elf/lib\libc.a(lib_a-memmove.o)
 .debug_frame   0x00000880       0x20 c:/altera/13.0sp1/nios2eds/bin/gnu/h-i686-mingw32/bin/../lib/gcc/nios2-elf/4.1.2/../../../../nios2-elf/lib\libc.a(lib_a-memset.o)
 .debug_frame   0x000008a0       0x38 c:/altera/13.0sp1/nios2eds/bin/gnu/h-i686-mingw32/bin/../lib/gcc/nios2-elf/4.1.2/../../../../nios2-elf/lib\libc.a(lib_a-perror.o)
 .debug_frame   0x000008d8       0x40 c:/altera/13.0sp1/nios2eds/bin/gnu/h-i686-mingw32/bin/../lib/gcc/nios2-elf/4.1.2/../../../../nios2-elf/lib\libc.a(lib_a-printf.o)
 .debug_frame   0x00000918       0x4c c:/altera/13.0sp1/nios2eds/bin/gnu/h-i686-mingw32/bin/../lib/gcc/nios2-elf/4.1.2/../../../../nios2-elf/lib\libc.a(lib_a-putc.o)
 .debug_frame   0x00000964       0x30 c:/altera/13.0sp1/nios2eds/bin/gnu/h-i686-mingw32/bin/../lib/gcc/nios2-elf/4.1.2/../../../../nios2-elf/lib\libc.a(lib_a-putchar.o)
 .debug_frame   0x00000994       0x3c c:/altera/13.0sp1/nios2eds/bin/gnu/h-i686-mingw32/bin/../lib/gcc/nios2-elf/4.1.2/../../../../nios2-elf/lib\libc.a(lib_a-puts.o)
 .debug_frame   0x000009d0       0x38 c:/altera/13.0sp1/nios2eds/bin/gnu/h-i686-mingw32/bin/../lib/gcc/nios2-elf/4.1.2/../../../../nios2-elf/lib\libc.a(lib_a-rget.o)
 .debug_frame   0x00000a08       0x2c c:/altera/13.0sp1/nios2eds/bin/gnu/h-i686-mingw32/bin/../lib/gcc/nios2-elf/4.1.2/../../../../nios2-elf/lib\libc.a(lib_a-sbrkr.o)
 .debug_frame   0x00000a34       0x40 c:/altera/13.0sp1/nios2eds/bin/gnu/h-i686-mingw32/bin/../lib/gcc/nios2-elf/4.1.2/../../../../nios2-elf/lib\libc.a(lib_a-sprintf.o)
 .debug_frame   0x00000a74       0x20 c:/altera/13.0sp1/nios2eds/bin/gnu/h-i686-mingw32/bin/../lib/gcc/nios2-elf/4.1.2/../../../../nios2-elf/lib\libc.a(lib_a-strchr.o)
 .debug_frame   0x00000a94       0x20 c:/altera/13.0sp1/nios2eds/bin/gnu/h-i686-mingw32/bin/../lib/gcc/nios2-elf/4.1.2/../../../../nios2-elf/lib\libc.a(lib_a-strcmp.o)
 .debug_frame   0x00000ab4       0x28 c:/altera/13.0sp1/nios2eds/bin/gnu/h-i686-mingw32/bin/../lib/gcc/nios2-elf/4.1.2/../../../../nios2-elf/lib\libc.a(lib_a-strerror.o)
 .debug_frame   0x00000adc       0x20 c:/altera/13.0sp1/nios2eds/bin/gnu/h-i686-mingw32/bin/../lib/gcc/nios2-elf/4.1.2/../../../../nios2-elf/lib\libc.a(lib_a-strlen.o)
 .debug_frame   0x00000afc       0x20 c:/altera/13.0sp1/nios2eds/bin/gnu/h-i686-mingw32/bin/../lib/gcc/nios2-elf/4.1.2/../../../../nios2-elf/lib\libc.a(lib_a-strncpy.o)
 .debug_frame   0x00000b1c       0x4c c:/altera/13.0sp1/nios2eds/bin/gnu/h-i686-mingw32/bin/../lib/gcc/nios2-elf/4.1.2/../../../../nios2-elf/lib\libc.a(lib_a-strtol.o)
 .debug_frame   0x00000b68       0x20 c:/altera/13.0sp1/nios2eds/bin/gnu/h-i686-mingw32/bin/../lib/gcc/nios2-elf/4.1.2/../../../../nios2-elf/lib\libc.a(lib_a-u_strerr.o)
 .debug_frame   0x00000b88       0x64 c:/altera/13.0sp1/nios2eds/bin/gnu/h-i686-mingw32/bin/../lib/gcc/nios2-elf/4.1.2/../../../../nios2-elf/lib\libc.a(lib_a-vfprintf.o)
 .debug_frame   0x00000bec       0x3c c:/altera/13.0sp1/nios2eds/bin/gnu/h-i686-mingw32/bin/../lib/gcc/nios2-elf/4.1.2/../../../../nios2-elf/lib\libc.a(lib_a-wbuf.o)
 .debug_frame   0x00000c28       0x2c c:/altera/13.0sp1/nios2eds/bin/gnu/h-i686-mingw32/bin/../lib/gcc/nios2-elf/4.1.2/../../../../nios2-elf/lib\libc.a(lib_a-wsetup.o)
 .debug_frame   0x00000c54       0x4c c:/altera/13.0sp1/nios2eds/bin/gnu/h-i686-mingw32/bin/../lib/gcc/nios2-elf/4.1.2/../../../../nios2-elf/lib\libc.a(lib_a-__call_atexit.o)
 .debug_frame   0x00000ca0       0x64 c:/altera/13.0sp1/nios2eds/bin/gnu/h-i686-mingw32/bin/../lib/gcc/nios2-elf/4.1.2/../../../../nios2-elf/lib\libc.a(lib_a-dtoa.o)
 .debug_frame   0x00000d04       0x40 c:/altera/13.0sp1/nios2eds/bin/gnu/h-i686-mingw32/bin/../lib/gcc/nios2-elf/4.1.2/../../../../nios2-elf/lib\libc.a(lib_a-fflush.o)
 .debug_frame   0x00000d44      0x118 c:/altera/13.0sp1/nios2eds/bin/gnu/h-i686-mingw32/bin/../lib/gcc/nios2-elf/4.1.2/../../../../nios2-elf/lib\libc.a(lib_a-findfp.o)
 .debug_frame   0x00000e5c       0x4c c:/altera/13.0sp1/nios2eds/bin/gnu/h-i686-mingw32/bin/../lib/gcc/nios2-elf/4.1.2/../../../../nios2-elf/lib\libc.a(lib_a-fputc.o)
 .debug_frame   0x00000ea8       0x3c c:/altera/13.0sp1/nios2eds/bin/gnu/h-i686-mingw32/bin/../lib/gcc/nios2-elf/4.1.2/../../../../nios2-elf/lib\libc.a(lib_a-fputs.o)
 .debug_frame   0x00000ee4       0x4c c:/altera/13.0sp1/nios2eds/bin/gnu/h-i686-mingw32/bin/../lib/gcc/nios2-elf/4.1.2/../../../../nios2-elf/lib\libc.a(lib_a-freer.o)
 .debug_frame   0x00000f30       0x38 c:/altera/13.0sp1/nios2eds/bin/gnu/h-i686-mingw32/bin/../lib/gcc/nios2-elf/4.1.2/../../../../nios2-elf/lib\libc.a(lib_a-fvwrite.o)
 .debug_frame   0x00000f68       0x60 c:/altera/13.0sp1/nios2eds/bin/gnu/h-i686-mingw32/bin/../lib/gcc/nios2-elf/4.1.2/../../../../nios2-elf/lib\libc.a(lib_a-fwalk.o)
 .debug_frame   0x00000fc8       0x70 c:/altera/13.0sp1/nios2eds/bin/gnu/h-i686-mingw32/bin/../lib/gcc/nios2-elf/4.1.2/../../../../nios2-elf/lib\libc.a(lib_a-locale.o)
 .debug_frame   0x00001038       0x2c c:/altera/13.0sp1/nios2eds/bin/gnu/h-i686-mingw32/bin/../lib/gcc/nios2-elf/4.1.2/../../../../nios2-elf/lib\libc.a(lib_a-makebuf.o)
 .debug_frame   0x00001064       0x20 c:/altera/13.0sp1/nios2eds/bin/gnu/h-i686-mingw32/bin/../lib/gcc/nios2-elf/4.1.2/../../../../nios2-elf/lib\libc.a(lib_a-memchr.o)
 .debug_frame   0x00001084      0x218 c:/altera/13.0sp1/nios2eds/bin/gnu/h-i686-mingw32/bin/../lib/gcc/nios2-elf/4.1.2/../../../../nios2-elf/lib\libc.a(lib_a-mprec.o)
 .debug_frame   0x0000129c       0x38 c:/altera/13.0sp1/nios2eds/bin/gnu/h-i686-mingw32/bin/../lib/gcc/nios2-elf/4.1.2/../../../../nios2-elf/lib\libc.a(lib_a-reallocr.o)
 .debug_frame   0x000012d4       0x3c c:/altera/13.0sp1/nios2eds/bin/gnu/h-i686-mingw32/bin/../lib/gcc/nios2-elf/4.1.2/../../../../nios2-elf/lib\libc.a(lib_a-refill.o)
 .debug_frame   0x00001310       0x20 c:/altera/13.0sp1/nios2eds/bin/gnu/h-i686-mingw32/bin/../lib/gcc/nios2-elf/4.1.2/../../../../nios2-elf/lib\libc.a(lib_a-s_isinfd.o)
 .debug_frame   0x00001330       0x20 c:/altera/13.0sp1/nios2eds/bin/gnu/h-i686-mingw32/bin/../lib/gcc/nios2-elf/4.1.2/../../../../nios2-elf/lib\libc.a(lib_a-s_isnand.o)
 .debug_frame   0x00001350       0x78 c:/altera/13.0sp1/nios2eds/bin/gnu/h-i686-mingw32/bin/../lib/gcc/nios2-elf/4.1.2/../../../../nios2-elf/lib\libc.a(lib_a-stdio.o)
 .debug_frame   0x000013c8       0x2c c:/altera/13.0sp1/nios2eds/bin/gnu/h-i686-mingw32/bin/../lib/gcc/nios2-elf/4.1.2/../../../../nios2-elf/lib\libc.a(lib_a-writer.o)
 .debug_frame   0x000013f4       0x28 c:/altera/13.0sp1/nios2eds/bin/gnu/h-i686-mingw32/bin/../lib/gcc/nios2-elf/4.1.2/../../../../nios2-elf/lib\libc.a(lib_a-callocr.o)
 .debug_frame   0x0000141c       0x2c c:/altera/13.0sp1/nios2eds/bin/gnu/h-i686-mingw32/bin/../lib/gcc/nios2-elf/4.1.2/../../../../nios2-elf/lib\libc.a(lib_a-closer.o)
 .debug_frame   0x00001448       0x3c c:/altera/13.0sp1/nios2eds/bin/gnu/h-i686-mingw32/bin/../lib/gcc/nios2-elf/4.1.2/../../../../nios2-elf/lib\libc.a(lib_a-fclose.o)
 .debug_frame   0x00001484       0x2c c:/altera/13.0sp1/nios2eds/bin/gnu/h-i686-mingw32/bin/../lib/gcc/nios2-elf/4.1.2/../../../../nios2-elf/lib\libc.a(lib_a-fstatr.o)
 .debug_frame   0x000014b0       0x2c c:/altera/13.0sp1/nios2eds/bin/gnu/h-i686-mingw32/bin/../lib/gcc/nios2-elf/4.1.2/../../../../nios2-elf/lib\libc.a(lib_a-isattyr.o)
 .debug_frame   0x000014dc       0x2c c:/altera/13.0sp1/nios2eds/bin/gnu/h-i686-mingw32/bin/../lib/gcc/nios2-elf/4.1.2/../../../../nios2-elf/lib\libc.a(lib_a-lseekr.o)
 .debug_frame   0x00001508       0x2c c:/altera/13.0sp1/nios2eds/bin/gnu/h-i686-mingw32/bin/../lib/gcc/nios2-elf/4.1.2/../../../../nios2-elf/lib\libc.a(lib_a-readr.o)
 .debug_frame   0x00001534       0x38 c:/altera/13.0sp1/nios2eds/bin/gnu/h-i686-mingw32/bin/../lib/gcc/nios2-elf/4.1.2\libgcc.a(_udivdi3.o)
 .debug_frame   0x0000156c       0x38 c:/altera/13.0sp1/nios2eds/bin/gnu/h-i686-mingw32/bin/../lib/gcc/nios2-elf/4.1.2\libgcc.a(_umoddi3.o)
 .debug_frame   0x000015a4       0x30 c:/altera/13.0sp1/nios2eds/bin/gnu/h-i686-mingw32/bin/../lib/gcc/nios2-elf/4.1.2\libgcc.a(_div_df.o)
 .debug_frame   0x000015d4       0x2c c:/altera/13.0sp1/nios2eds/bin/gnu/h-i686-mingw32/bin/../lib/gcc/nios2-elf/4.1.2\libgcc.a(_eq_df.o)
 .debug_frame   0x00001600       0x2c c:/altera/13.0sp1/nios2eds/bin/gnu/h-i686-mingw32/bin/../lib/gcc/nios2-elf/4.1.2\libgcc.a(_ne_df.o)
 .debug_frame   0x0000162c       0x2c c:/altera/13.0sp1/nios2eds/bin/gnu/h-i686-mingw32/bin/../lib/gcc/nios2-elf/4.1.2\libgcc.a(_gt_df.o)
 .debug_frame   0x00001658       0x2c c:/altera/13.0sp1/nios2eds/bin/gnu/h-i686-mingw32/bin/../lib/gcc/nios2-elf/4.1.2\libgcc.a(_lt_df.o)
 .debug_frame   0x00001684       0x30 c:/altera/13.0sp1/nios2eds/bin/gnu/h-i686-mingw32/bin/../lib/gcc/nios2-elf/4.1.2\libgcc.a(_si_to_df.o)
 .debug_frame   0x000016b4       0x70 c:/altera/13.0sp1/nios2eds/bin/gnu/h-i686-mingw32/bin/../lib/gcc/nios2-elf/4.1.2\libgcc.a(lib2-divmod.o)
 .debug_frame   0x00001724       0x48 ../SemaforoNet_bsp/\libucosii_bsp.a(alt_exit.o)
 .debug_frame   0x0000176c       0x48 ../SemaforoNet_bsp/\libucosii_bsp.a(alt_flash_dev.o)
 .debug_frame   0x000017b4       0x48 ../SemaforoNet_bsp/\libucosii_bsp.a(alt_fstat.o)
 .debug_frame   0x000017fc       0x2c ../SemaforoNet_bsp/\libucosii_bsp.a(alt_irq_register.o)
 .debug_frame   0x00001828       0x48 ../SemaforoNet_bsp/\libucosii_bsp.a(alt_isatty.o)
 .debug_frame   0x00001870       0x48 ../SemaforoNet_bsp/\libucosii_bsp.a(alt_lseek.o)
 .debug_frame   0x000018b8       0x2c ../SemaforoNet_bsp/\libucosii_bsp.a(alt_main.o)
 .debug_frame   0x000018e4       0x2c ../SemaforoNet_bsp/\libucosii_bsp.a(alt_sbrk.o)
 .debug_frame   0x00001910       0x30 ../SemaforoNet_bsp/\libucosii_bsp.a(alt_usleep.o)
 .debug_frame   0x00001940       0x4c ../SemaforoNet_bsp/\libucosii_bsp.a(alt_env_lock.o)
 .debug_frame   0x0000198c       0x4c ../SemaforoNet_bsp/\libucosii_bsp.a(alt_malloc_lock.o)
 .debug_frame   0x000019d8      0x3e4 ../SemaforoNet_bsp/\libucosii_bsp.a(os_core.o)
 .debug_frame   0x00001dbc       0x2c ../SemaforoNet_bsp/\libucosii_bsp.a(os_dbg.o)
 .debug_frame   0x00001de8      0x180 ../SemaforoNet_bsp/\libucosii_bsp.a(os_flag.o)
 .debug_frame   0x00001f68       0xd4 ../SemaforoNet_bsp/\libucosii_bsp.a(os_mem.o)
 .debug_frame   0x0000203c      0x144 ../SemaforoNet_bsp/\libucosii_bsp.a(os_q.o)
 .debug_frame   0x00002180       0xf0 ../SemaforoNet_bsp/\libucosii_bsp.a(os_sem.o)
 .debug_frame   0x00002270      0x160 ../SemaforoNet_bsp/\libucosii_bsp.a(os_task.o)
 .debug_frame   0x000023d0       0xa0 ../SemaforoNet_bsp/\libucosii_bsp.a(os_time.o)
 .debug_frame   0x00002470       0x64 ../SemaforoNet_bsp/\libucosii_bsp.a(alt_sys_init.o)
 .debug_frame   0x000024d4       0xd4 ../SemaforoNet_bsp/\libucosii_bsp.a(altera_avalon_cfi_flash.o)
 .debug_frame   0x000025a8      0x210 ../SemaforoNet_bsp/\libucosii_bsp.a(altera_avalon_cfi_flash_table.o)
 .debug_frame   0x000027b8      0x128 ../SemaforoNet_bsp/\libucosii_bsp.a(altera_avalon_epcs_flash_controller.o)
 .debug_frame   0x000028e0       0x80 ../SemaforoNet_bsp/\libucosii_bsp.a(altera_avalon_jtag_uart_fd.o)
 .debug_frame   0x00002960       0x80 ../SemaforoNet_bsp/\libucosii_bsp.a(altera_avalon_jtag_uart_init.o)
 .debug_frame   0x000029e0       0x2c ../SemaforoNet_bsp/\libucosii_bsp.a(altera_avalon_jtag_uart_ioctl.o)
 .debug_frame   0x00002a0c       0x2c ../SemaforoNet_bsp/\libucosii_bsp.a(altera_avalon_jtag_uart_read.o)
 .debug_frame   0x00002a38       0x2c ../SemaforoNet_bsp/\libucosii_bsp.a(altera_avalon_jtag_uart_write.o)
 .debug_frame   0x00002a64      0x114 ../SemaforoNet_bsp/\libucosii_bsp.a(altera_avalon_lcd_16207.o)
 .debug_frame   0x00002b78       0x2c ../SemaforoNet_bsp/\libucosii_bsp.a(altera_avalon_lcd_16207_fd.o)
 .debug_frame   0x00002ba4       0x48 ../SemaforoNet_bsp/\libucosii_bsp.a(altera_avalon_timer_sc.o)
 .debug_frame   0x00002bec       0x64 ../SemaforoNet_bsp/\libucosii_bsp.a(altera_avalon_uart_fd.o)
 .debug_frame   0x00002c50       0x9c ../SemaforoNet_bsp/\libucosii_bsp.a(altera_avalon_uart_init.o)
 .debug_frame   0x00002cec       0x48 ../SemaforoNet_bsp/\libucosii_bsp.a(altera_avalon_uart_read.o)
 .debug_frame   0x00002d34       0x48 ../SemaforoNet_bsp/\libucosii_bsp.a(altera_avalon_uart_write.o)
 .debug_frame   0x00002d7c      0x160 ../SemaforoNet_bsp/\libucosii_bsp.a(epcs_commands.o)
 .debug_frame   0x00002edc       0x2c ../SemaforoNet_bsp/\libucosii_bsp.a(alt_iniche_close.o)
 .debug_frame   0x00002f08       0x2c ../SemaforoNet_bsp/\libucosii_bsp.a(alt_iniche_dev.o)
 .debug_frame   0x00002f34       0x2c ../SemaforoNet_bsp/\libucosii_bsp.a(alt_iniche_read.o)
 .debug_frame   0x00002f60       0x2c ../SemaforoNet_bsp/\libucosii_bsp.a(alt_iniche_write.o)
 .debug_frame   0x00002f8c       0xb8 ../SemaforoNet_bsp/\libucosii_bsp.a(ipnet.o)
 .debug_frame   0x00003044       0x80 ../SemaforoNet_bsp/\libucosii_bsp.a(ipstart.o)
 .debug_frame   0x000030c4       0xf8 ../SemaforoNet_bsp/\libucosii_bsp.a(igmp_cmn.o)
 .debug_frame   0x000031bc      0x12c ../SemaforoNet_bsp/\libucosii_bsp.a(bsdsock.o)
 .debug_frame   0x000032e8       0x48 ../SemaforoNet_bsp/\libucosii_bsp.a(cksum.o)
 .debug_frame   0x00003330      0x164 ../SemaforoNet_bsp/\libucosii_bsp.a(in_utils.o)
 .debug_frame   0x00003494       0x64 ../SemaforoNet_bsp/\libucosii_bsp.a(netmain.o)
 .debug_frame   0x000034f8      0x10c ../SemaforoNet_bsp/\libucosii_bsp.a(parseip.o)
 .debug_frame   0x00003604       0xd4 ../SemaforoNet_bsp/\libucosii_bsp.a(tk_crnos.o)
 .debug_frame   0x000036d8      0x250 ../SemaforoNet_bsp/\libucosii_bsp.a(dhcpclnt.o)
 .debug_frame   0x00003928       0x2c ../SemaforoNet_bsp/\libucosii_bsp.a(dhcputil.o)
 .debug_frame   0x00003954       0xb8 ../SemaforoNet_bsp/\libucosii_bsp.a(pktalloc.o)
 .debug_frame   0x00003a0c       0x64 ../SemaforoNet_bsp/\libucosii_bsp.a(q.o)
 .debug_frame   0x00003a70       0x48 ../SemaforoNet_bsp/\libucosii_bsp.a(udp_open.o)
 .debug_frame   0x00003ab8       0xf0 ../SemaforoNet_bsp/\libucosii_bsp.a(brdutils.o)
 .debug_frame   0x00003ba8       0x9c ../SemaforoNet_bsp/\libucosii_bsp.a(osportco.o)
 .debug_frame   0x00003c44      0x110 ../SemaforoNet_bsp/\libucosii_bsp.a(targnios.o)
 .debug_frame   0x00003d54      0x208 ../SemaforoNet_bsp/\libucosii_bsp.a(nptcp.o)
 .debug_frame   0x00003f5c       0x68 ../SemaforoNet_bsp/\libucosii_bsp.a(rawsock.o)
 .debug_frame   0x00003fc4      0x224 ../SemaforoNet_bsp/\libucosii_bsp.a(sockcall.o)
 .debug_frame   0x000041e8      0x1d4 ../SemaforoNet_bsp/\libucosii_bsp.a(socket.o)
 .debug_frame   0x000043bc      0x294 ../SemaforoNet_bsp/\libucosii_bsp.a(socket2.o)
 .debug_frame   0x00004650      0x110 ../SemaforoNet_bsp/\libucosii_bsp.a(soselect.o)
 .debug_frame   0x00004760       0xd8 ../SemaforoNet_bsp/\libucosii_bsp.a(tcp_in.o)
 .debug_frame   0x00004838       0x68 ../SemaforoNet_bsp/\libucosii_bsp.a(tcp_out.o)
 .debug_frame   0x000048a0      0x10c ../SemaforoNet_bsp/\libucosii_bsp.a(tcp_subr.o)
 .debug_frame   0x000049ac       0x64 ../SemaforoNet_bsp/\libucosii_bsp.a(tcp_timr.o)
 .debug_frame   0x00004a10       0x80 ../SemaforoNet_bsp/\libucosii_bsp.a(tcp_usr.o)
 .debug_frame   0x00004a90       0x2c ../SemaforoNet_bsp/\libucosii_bsp.a(tcpport.o)
 .debug_frame   0x00004abc       0xbc ../SemaforoNet_bsp/\libucosii_bsp.a(udpsock.o)
 .debug_frame   0x00004b78       0x2c ../SemaforoNet_bsp/\libucosii_bsp.a(alt_alarm_start.o)
 .debug_frame   0x00004ba4       0x2c ../SemaforoNet_bsp/\libucosii_bsp.a(alt_busy_sleep.o)
 .debug_frame   0x00004bd0       0x48 ../SemaforoNet_bsp/\libucosii_bsp.a(alt_close.o)
 .debug_frame   0x00004c18       0x2c ../SemaforoNet_bsp/\libucosii_bsp.a(alt_dcache_flush.o)
 .debug_frame   0x00004c44       0x2c ../SemaforoNet_bsp/\libucosii_bsp.a(alt_dev.o)
 .debug_frame   0x00004c70       0x48 ../SemaforoNet_bsp/\libucosii_bsp.a(alt_dev_llist_insert.o)
 .debug_frame   0x00004cb8       0x2c ../SemaforoNet_bsp/\libucosii_bsp.a(alt_do_ctors.o)
 .debug_frame   0x00004ce4       0x2c ../SemaforoNet_bsp/\libucosii_bsp.a(alt_do_dtors.o)
 .debug_frame   0x00004d10       0x2c ../SemaforoNet_bsp/\libucosii_bsp.a(alt_find_dev.o)
 .debug_frame   0x00004d3c       0x80 ../SemaforoNet_bsp/\libucosii_bsp.a(alt_iic.o)
 .debug_frame   0x00004dbc       0x2c ../SemaforoNet_bsp/\libucosii_bsp.a(alt_iic_isr_register.o)
 .debug_frame   0x00004de8       0x48 ../SemaforoNet_bsp/\libucosii_bsp.a(alt_io_redirect.o)
 .debug_frame   0x00004e30       0x2c ../SemaforoNet_bsp/\libucosii_bsp.a(alt_irq_handler.o)
 .debug_frame   0x00004e5c       0x64 ../SemaforoNet_bsp/\libucosii_bsp.a(alt_open.o)
 .debug_frame   0x00004ec0       0x48 ../SemaforoNet_bsp/\libucosii_bsp.a(alt_read.o)
 .debug_frame   0x00004f08       0x2c ../SemaforoNet_bsp/\libucosii_bsp.a(alt_release_fd.o)
 .debug_frame   0x00004f34       0x2c ../SemaforoNet_bsp/\libucosii_bsp.a(alt_remap_cached.o)
 .debug_frame   0x00004f60       0x2c ../SemaforoNet_bsp/\libucosii_bsp.a(alt_remap_uncached.o)
 .debug_frame   0x00004f8c       0x48 ../SemaforoNet_bsp/\libucosii_bsp.a(alt_tick.o)
 .debug_frame   0x00004fd4       0x48 ../SemaforoNet_bsp/\libucosii_bsp.a(alt_write.o)
 .debug_frame   0x0000501c       0x2c ../SemaforoNet_bsp/\libucosii_bsp.a(altera_nios2_qsys_irq.o)
 .debug_frame   0x00005048      0x128 ../SemaforoNet_bsp/\libucosii_bsp.a(os_cpu_c.o)
 .debug_frame   0x00005170       0x80 ../SemaforoNet_bsp/\libucosii_bsp.a(altera_avalon_cfi_flash_amd.o)
 .debug_frame   0x000051f0       0x80 ../SemaforoNet_bsp/\libucosii_bsp.a(altera_avalon_cfi_flash_intel.o)
 .debug_frame   0x00005270       0x2c ../SemaforoNet_bsp/\libucosii_bsp.a(altera_avalon_spi.o)
 .debug_frame   0x0000529c       0xe0 ../SemaforoNet_bsp/\libucosii_bsp.a(allports.o)
 .debug_frame   0x0000537c       0x88 ../SemaforoNet_bsp/\libucosii_bsp.a(timeouts.o)
 .debug_frame   0x00005404       0x48 ../SemaforoNet_bsp/\libucosii_bsp.a(tk_misc.o)
 .debug_frame   0x0000544c       0x2c ../SemaforoNet_bsp/\libucosii_bsp.a(alt_iniche_fcntl.o)
 .debug_frame   0x00005478      0x160 ../SemaforoNet_bsp/\libucosii_bsp.a(et_arp.o)
 .debug_frame   0x000055d8       0x80 ../SemaforoNet_bsp/\libucosii_bsp.a(iface.o)
 .debug_frame   0x00005658      0x160 ../SemaforoNet_bsp/\libucosii_bsp.a(ip.o)
 .debug_frame   0x000057b8      0x1d4 ../SemaforoNet_bsp/\libucosii_bsp.a(ip_reasm.o)
 .debug_frame   0x0000598c       0x68 ../SemaforoNet_bsp/\libucosii_bsp.a(ipdemux.o)
 .debug_frame   0x000059f4       0x64 ../SemaforoNet_bsp/\libucosii_bsp.a(ipmc.o)
 .debug_frame   0x00005a58       0x64 ../SemaforoNet_bsp/\libucosii_bsp.a(ipport.o)
 .debug_frame   0x00005abc       0xb8 ../SemaforoNet_bsp/\libucosii_bsp.a(ipraw.o)
 .debug_frame   0x00005b74       0x64 ../SemaforoNet_bsp/\libucosii_bsp.a(iproute.o)
 .debug_frame   0x00005bd8       0xd4 ../SemaforoNet_bsp/\libucosii_bsp.a(udp.o)
 .debug_frame   0x00005cac       0x2c ../SemaforoNet_bsp/\libucosii_bsp.a(igmp.o)
 .debug_frame   0x00005cd8       0x9c ../SemaforoNet_bsp/\libucosii_bsp.a(igmp2.o)
 .debug_frame   0x00005d74       0x84 ../SemaforoNet_bsp/\libucosii_bsp.a(ipopt.o)
 .debug_frame   0x00005df8       0x4c ../SemaforoNet_bsp/\libucosii_bsp.a(u_mctest.o)
 .debug_frame   0x00005e44       0x48 ../SemaforoNet_bsp/\libucosii_bsp.a(dhcsetup.o)
 .debug_frame   0x00005e8c      0x10c ../SemaforoNet_bsp/\libucosii_bsp.a(memdev.o)
 .debug_frame   0x00005f98       0x2c ../SemaforoNet_bsp/\libucosii_bsp.a(tcpcksum.o)
 .debug_frame   0x00005fc4       0xf0 ../SemaforoNet_bsp/\libucosii_bsp.a(in_pcb.o)
 .debug_frame   0x000060b4      0x320 ../SemaforoNet_bsp/\libucosii_bsp.a(vfsfiles.o)
 .debug_frame   0x000063d4       0x2c ../SemaforoNet_bsp/\libucosii_bsp.a(vfsport.o)
 .debug_frame   0x00006400       0x48 ../SemaforoNet_bsp/\libucosii_bsp.a(alt_fcntl.o)
 .debug_frame   0x00006448       0x2c ../SemaforoNet_bsp/\libucosii_bsp.a(alt_find_file.o)
 .debug_frame   0x00006474       0x2c ../SemaforoNet_bsp/\libucosii_bsp.a(alt_get_fd.o)
 .debug_frame   0x000064a0       0x84 ../SemaforoNet_bsp/\libucosii_bsp.a(icmp.o)
 .debug_frame   0x00006524       0x20 c:/altera/13.0sp1/nios2eds/bin/gnu/h-i686-mingw32/bin/../lib/gcc/nios2-elf/4.1.2/../../../../nios2-elf/lib\libc.a(lib_a-atexit.o)
 .debug_frame   0x00006544       0x30 c:/altera/13.0sp1/nios2eds/bin/gnu/h-i686-mingw32/bin/../lib/gcc/nios2-elf/4.1.2/../../../../nios2-elf/lib\libc.a(lib_a-atoi.o)
 .debug_frame   0x00006574       0x20 c:/altera/13.0sp1/nios2eds/bin/gnu/h-i686-mingw32/bin/../lib/gcc/nios2-elf/4.1.2/../../../../nios2-elf/lib\libc.a(lib_a-calloc.o)
 .debug_frame   0x00006594       0x20 c:/altera/13.0sp1/nios2eds/bin/gnu/h-i686-mingw32/bin/../lib/gcc/nios2-elf/4.1.2/../../../../nios2-elf/lib\libc.a(lib_a-memcmp.o)
 .debug_frame   0x000065b4       0x20 c:/altera/13.0sp1/nios2eds/bin/gnu/h-i686-mingw32/bin/../lib/gcc/nios2-elf/4.1.2/../../../../nios2-elf/lib\libc.a(lib_a-strcpy.o)
 .debug_frame   0x000065d4       0x20 c:/altera/13.0sp1/nios2eds/bin/gnu/h-i686-mingw32/bin/../lib/gcc/nios2-elf/4.1.2/../../../../nios2-elf/lib\libc.a(lib_a-strncmp.o)
 .debug_frame   0x000065f4       0x30 c:/altera/13.0sp1/nios2eds/bin/gnu/h-i686-mingw32/bin/../lib/gcc/nios2-elf/4.1.2/../../../../nios2-elf/lib\libc.a(lib_a-vprintf.o)
 .debug_frame   0x00006624       0x38 c:/altera/13.0sp1/nios2eds/bin/gnu/h-i686-mingw32/bin/../lib/gcc/nios2-elf/4.1.2/../../../../nios2-elf/lib\libc.a(lib_a-vsprintf.o)
 .debug_frame   0x0000665c       0x34 c:/altera/13.0sp1/nios2eds/bin/gnu/h-i686-mingw32/bin/../lib/gcc/nios2-elf/4.1.2/../../../../nios2-elf/lib\libc.a(lib_a-__atexit.o)

.debug_str      0x00000000     0x35e3
 *(.debug_str)
 .debug_str     0x00000000       0x4e obj/default/alt_error_handler.o
 .debug_str     0x0000004e       0x33 obj/default/dm9000a.o
 .debug_str     0x00000081       0x2b obj/default/led.o
 .debug_str     0x000000ac       0x1d obj/default/main.o
 .debug_str     0x000000c9       0x64 obj/default/network_utilities.o
 .debug_str     0x0000012d       0x2c obj/default/simple_socket_server.o
 .debug_str     0x00000159      0x125 c:/altera/13.0sp1/nios2eds/bin/gnu/h-i686-mingw32/bin/../lib/gcc/nios2-elf/4.1.2\libgcc.a(_fixunsdfsi.o)
                                0x16b (size before relaxing)
 .debug_str     0x0000027e      0x138 c:/altera/13.0sp1/nios2eds/bin/gnu/h-i686-mingw32/bin/../lib/gcc/nios2-elf/4.1.2\libgcc.a(_addsub_df.o)
                                0x26f (size before relaxing)
 .debug_str     0x000003b6       0x45 c:/altera/13.0sp1/nios2eds/bin/gnu/h-i686-mingw32/bin/../lib/gcc/nios2-elf/4.1.2\libgcc.a(_mul_df.o)
                                0x241 (size before relaxing)
 .debug_str     0x000003fb        0x8 c:/altera/13.0sp1/nios2eds/bin/gnu/h-i686-mingw32/bin/../lib/gcc/nios2-elf/4.1.2\libgcc.a(_ge_df.o)
                                0x1fe (size before relaxing)
 .debug_str     0x00000403        0xa c:/altera/13.0sp1/nios2eds/bin/gnu/h-i686-mingw32/bin/../lib/gcc/nios2-elf/4.1.2\libgcc.a(_df_to_si.o)
                                0x207 (size before relaxing)
 .debug_str     0x00000000      0x1a3 c:/altera/13.0sp1/nios2eds/bin/gnu/h-i686-mingw32/bin/../lib/gcc/nios2-elf/4.1.2\libgcc.a(_thenan_df.o)
 .debug_str     0x0000040d       0x1b c:/altera/13.0sp1/nios2eds/bin/gnu/h-i686-mingw32/bin/../lib/gcc/nios2-elf/4.1.2\libgcc.a(_usi_to_df.o)
                                0x1da (size before relaxing)
 .debug_str     0x00000428       0x42 c:/altera/13.0sp1/nios2eds/bin/gnu/h-i686-mingw32/bin/../lib/gcc/nios2-elf/4.1.2\libgcc.a(_muldi3.o)
                                0x1ac (size before relaxing)
 .debug_str     0x0000046a       0x20 c:/altera/13.0sp1/nios2eds/bin/gnu/h-i686-mingw32/bin/../lib/gcc/nios2-elf/4.1.2\libgcc.a(_clzsi2.o)
                                0x17e (size before relaxing)
 .debug_str     0x0000048a       0x10 c:/altera/13.0sp1/nios2eds/bin/gnu/h-i686-mingw32/bin/../lib/gcc/nios2-elf/4.1.2\libgcc.a(_pack_df.o)
                                0x206 (size before relaxing)
 .debug_str     0x0000049a        0xb c:/altera/13.0sp1/nios2eds/bin/gnu/h-i686-mingw32/bin/../lib/gcc/nios2-elf/4.1.2\libgcc.a(_unpack_df.o)
                                0x1e8 (size before relaxing)
 .debug_str     0x000004a5       0x10 c:/altera/13.0sp1/nios2eds/bin/gnu/h-i686-mingw32/bin/../lib/gcc/nios2-elf/4.1.2\libgcc.a(_fpcmp_parts_df.o)
                                0x1c6 (size before relaxing)
 .debug_str     0x00000000      0x161 c:/altera/13.0sp1/nios2eds/bin/gnu/h-i686-mingw32/bin/../lib/gcc/nios2-elf/4.1.2\libgcc.a(_clz.o)
 .debug_str     0x000004b5       0xe2 c:/altera/13.0sp1/nios2eds/bin/gnu/h-i686-mingw32/bin/../lib/gcc/nios2-elf/4.1.2/../../../../nios2-elf/lib\libc.a(lib_a-ctype_.o)
                                0x105 (size before relaxing)
 .debug_str     0x00000597      0x43e c:/altera/13.0sp1/nios2eds/bin/gnu/h-i686-mingw32/bin/../lib/gcc/nios2-elf/4.1.2/../../../../nios2-elf/lib\libc.a(lib_a-exit.o)
                                0x50c (size before relaxing)
 .debug_str     0x000009d5       0xe8 c:/altera/13.0sp1/nios2eds/bin/gnu/h-i686-mingw32/bin/../lib/gcc/nios2-elf/4.1.2/../../../../nios2-elf/lib\libc.a(lib_a-fprintf.o)
                                0x51f (size before relaxing)
 .debug_str     0x00000abd       0x87 c:/altera/13.0sp1/nios2eds/bin/gnu/h-i686-mingw32/bin/../lib/gcc/nios2-elf/4.1.2/../../../../nios2-elf/lib\libc.a(lib_a-fwrite.o)
                                0x55f (size before relaxing)
 .debug_str     0x00000b44       0x45 c:/altera/13.0sp1/nios2eds/bin/gnu/h-i686-mingw32/bin/../lib/gcc/nios2-elf/4.1.2/../../../../nios2-elf/lib\libc.a(lib_a-getc.o)
                                0x512 (size before relaxing)
 .debug_str     0x00000b89       0xd1 c:/altera/13.0sp1/nios2eds/bin/gnu/h-i686-mingw32/bin/../lib/gcc/nios2-elf/4.1.2/../../../../nios2-elf/lib\libc.a(lib_a-impure.o)
                                0x51a (size before relaxing)
 .debug_str     0x00000c5a       0x47 c:/altera/13.0sp1/nios2eds/bin/gnu/h-i686-mingw32/bin/../lib/gcc/nios2-elf/4.1.2/../../../../nios2-elf/lib\libc.a(lib_a-malloc.o)
                                0x51c (size before relaxing)
 .debug_str     0x00000ca1      0x208 c:/altera/13.0sp1/nios2eds/bin/gnu/h-i686-mingw32/bin/../lib/gcc/nios2-elf/4.1.2/../../../../nios2-elf/lib\libc.a(lib_a-mallocr.o)
                                0x6f1 (size before relaxing)
 .debug_str     0x00000ea9       0xf5 c:/altera/13.0sp1/nios2eds/bin/gnu/h-i686-mingw32/bin/../lib/gcc/nios2-elf/4.1.2/../../../../nios2-elf/lib\libc.a(lib_a-memcpy.o)
                                0x128 (size before relaxing)
 .debug_str     0x00000f9e       0x5d c:/altera/13.0sp1/nios2eds/bin/gnu/h-i686-mingw32/bin/../lib/gcc/nios2-elf/4.1.2/../../../../nios2-elf/lib\libc.a(lib_a-memmove.o)
                                0x19d (size before relaxing)
 .debug_str     0x00000ffb       0x56 c:/altera/13.0sp1/nios2eds/bin/gnu/h-i686-mingw32/bin/../lib/gcc/nios2-elf/4.1.2/../../../../nios2-elf/lib\libc.a(lib_a-memset.o)
                                0x17e (size before relaxing)
 .debug_str     0x00001051       0x4b c:/altera/13.0sp1/nios2eds/bin/gnu/h-i686-mingw32/bin/../lib/gcc/nios2-elf/4.1.2/../../../../nios2-elf/lib\libc.a(lib_a-perror.o)
                                0x512 (size before relaxing)
 .debug_str     0x0000109c       0x44 c:/altera/13.0sp1/nios2eds/bin/gnu/h-i686-mingw32/bin/../lib/gcc/nios2-elf/4.1.2/../../../../nios2-elf/lib\libc.a(lib_a-printf.o)
                                0x523 (size before relaxing)
 .debug_str     0x000010e0       0x40 c:/altera/13.0sp1/nios2eds/bin/gnu/h-i686-mingw32/bin/../lib/gcc/nios2-elf/4.1.2/../../../../nios2-elf/lib\libc.a(lib_a-putc.o)
                                0x512 (size before relaxing)
 .debug_str     0x00001120       0x4e c:/altera/13.0sp1/nios2eds/bin/gnu/h-i686-mingw32/bin/../lib/gcc/nios2-elf/4.1.2/../../../../nios2-elf/lib\libc.a(lib_a-putchar.o)
                                0x50f (size before relaxing)
 .debug_str     0x0000116e       0x40 c:/altera/13.0sp1/nios2eds/bin/gnu/h-i686-mingw32/bin/../lib/gcc/nios2-elf/4.1.2/../../../../nios2-elf/lib\libc.a(lib_a-puts.o)
                                0x549 (size before relaxing)
 .debug_str     0x000011ae       0x4a c:/altera/13.0sp1/nios2eds/bin/gnu/h-i686-mingw32/bin/../lib/gcc/nios2-elf/4.1.2/../../../../nios2-elf/lib\libc.a(lib_a-rget.o)
                                0x510 (size before relaxing)
 .debug_str     0x000011f8       0x50 c:/altera/13.0sp1/nios2eds/bin/gnu/h-i686-mingw32/bin/../lib/gcc/nios2-elf/4.1.2/../../../../nios2-elf/lib\libc.a(lib_a-sbrkr.o)
                                0x50b (size before relaxing)
 .debug_str     0x00001248       0x46 c:/altera/13.0sp1/nios2eds/bin/gnu/h-i686-mingw32/bin/../lib/gcc/nios2-elf/4.1.2/../../../../nios2-elf/lib\libc.a(lib_a-sprintf.o)
                                0x52b (size before relaxing)
 .debug_str     0x0000128e       0x47 c:/altera/13.0sp1/nios2eds/bin/gnu/h-i686-mingw32/bin/../lib/gcc/nios2-elf/4.1.2/../../../../nios2-elf/lib\libc.a(lib_a-strchr.o)
                                0x175 (size before relaxing)
 .debug_str     0x000012d5       0x42 c:/altera/13.0sp1/nios2eds/bin/gnu/h-i686-mingw32/bin/../lib/gcc/nios2-elf/4.1.2/../../../../nios2-elf/lib\libc.a(lib_a-strcmp.o)
                                0x163 (size before relaxing)
 .debug_str     0x00001317       0x44 c:/altera/13.0sp1/nios2eds/bin/gnu/h-i686-mingw32/bin/../lib/gcc/nios2-elf/4.1.2/../../../../nios2-elf/lib\libc.a(lib_a-strerror.o)
                                0x174 (size before relaxing)
 .debug_str     0x0000135b       0x42 c:/altera/13.0sp1/nios2eds/bin/gnu/h-i686-mingw32/bin/../lib/gcc/nios2-elf/4.1.2/../../../../nios2-elf/lib\libc.a(lib_a-strlen.o)
                                0x17d (size before relaxing)
 .debug_str     0x0000139d       0x44 c:/altera/13.0sp1/nios2eds/bin/gnu/h-i686-mingw32/bin/../lib/gcc/nios2-elf/4.1.2/../../../../nios2-elf/lib\libc.a(lib_a-strncpy.o)
                                0x194 (size before relaxing)
 .debug_str     0x000013e1       0x66 c:/altera/13.0sp1/nios2eds/bin/gnu/h-i686-mingw32/bin/../lib/gcc/nios2-elf/4.1.2/../../../../nios2-elf/lib\libc.a(lib_a-strtol.o)
                                0x53e (size before relaxing)
 .debug_str     0x00001447       0x4c c:/altera/13.0sp1/nios2eds/bin/gnu/h-i686-mingw32/bin/../lib/gcc/nios2-elf/4.1.2/../../../../nios2-elf/lib\libc.a(lib_a-u_strerr.o)
                                 0xf0 (size before relaxing)
 .debug_str     0x00001493      0x173 c:/altera/13.0sp1/nios2eds/bin/gnu/h-i686-mingw32/bin/../lib/gcc/nios2-elf/4.1.2/../../../../nios2-elf/lib\libc.a(lib_a-vfprintf.o)
                                0x6f8 (size before relaxing)
 .debug_str     0x00001606       0x4a c:/altera/13.0sp1/nios2eds/bin/gnu/h-i686-mingw32/bin/../lib/gcc/nios2-elf/4.1.2/../../../../nios2-elf/lib\libc.a(lib_a-wbuf.o)
                                0x510 (size before relaxing)
 .debug_str     0x00001650       0x46 c:/altera/13.0sp1/nios2eds/bin/gnu/h-i686-mingw32/bin/../lib/gcc/nios2-elf/4.1.2/../../../../nios2-elf/lib\libc.a(lib_a-wsetup.o)
                                0x50c (size before relaxing)
 .debug_str     0x00001696       0x7b c:/altera/13.0sp1/nios2eds/bin/gnu/h-i686-mingw32/bin/../lib/gcc/nios2-elf/4.1.2/../../../../nios2-elf/lib\libc.a(lib_a-__call_atexit.o)
                                0x54e (size before relaxing)
 .debug_str     0x00001711      0x102 c:/altera/13.0sp1/nios2eds/bin/gnu/h-i686-mingw32/bin/../lib/gcc/nios2-elf/4.1.2/../../../../nios2-elf/lib\libc.a(lib_a-dtoa.o)
                                0x601 (size before relaxing)
 .debug_str     0x00001813       0x52 c:/altera/13.0sp1/nios2eds/bin/gnu/h-i686-mingw32/bin/../lib/gcc/nios2-elf/4.1.2/../../../../nios2-elf/lib\libc.a(lib_a-fflush.o)
                                0x532 (size before relaxing)
 .debug_str     0x00001865      0x102 c:/altera/13.0sp1/nios2eds/bin/gnu/h-i686-mingw32/bin/../lib/gcc/nios2-elf/4.1.2/../../../../nios2-elf/lib\libc.a(lib_a-findfp.o)
                                0x5f4 (size before relaxing)
 .debug_str     0x00001967       0x48 c:/altera/13.0sp1/nios2eds/bin/gnu/h-i686-mingw32/bin/../lib/gcc/nios2-elf/4.1.2/../../../../nios2-elf/lib\libc.a(lib_a-fputc.o)
                                0x51a (size before relaxing)
 .debug_str     0x000019af       0x48 c:/altera/13.0sp1/nios2eds/bin/gnu/h-i686-mingw32/bin/../lib/gcc/nios2-elf/4.1.2/../../../../nios2-elf/lib\libc.a(lib_a-fputs.o)
                                0x558 (size before relaxing)
 .debug_str     0x000019f7       0x3c c:/altera/13.0sp1/nios2eds/bin/gnu/h-i686-mingw32/bin/../lib/gcc/nios2-elf/4.1.2/../../../../nios2-elf/lib\libc.a(lib_a-freer.o)
                                0x643 (size before relaxing)
 .debug_str     0x00001a33       0x66 c:/altera/13.0sp1/nios2eds/bin/gnu/h-i686-mingw32/bin/../lib/gcc/nios2-elf/4.1.2/../../../../nios2-elf/lib\libc.a(lib_a-fvwrite.o)
                                0x563 (size before relaxing)
 .debug_str     0x00001a99       0x5e c:/altera/13.0sp1/nios2eds/bin/gnu/h-i686-mingw32/bin/../lib/gcc/nios2-elf/4.1.2/../../../../nios2-elf/lib\libc.a(lib_a-fwalk.o)
                                0x535 (size before relaxing)
 .debug_str     0x00001af7       0x3d c:/altera/13.0sp1/nios2eds/bin/gnu/h-i686-mingw32/bin/../lib/gcc/nios2-elf/4.1.2/../../../../nios2-elf/lib\libc.a(lib_a-int_errno.o)
                                0x163 (size before relaxing)
 .debug_str     0x00001b34      0x225 c:/altera/13.0sp1/nios2eds/bin/gnu/h-i686-mingw32/bin/../lib/gcc/nios2-elf/4.1.2/../../../../nios2-elf/lib\libc.a(lib_a-locale.o)
                                0x6a9 (size before relaxing)
 .debug_str     0x00001d59      0x123 c:/altera/13.0sp1/nios2eds/bin/gnu/h-i686-mingw32/bin/../lib/gcc/nios2-elf/4.1.2/../../../../nios2-elf/lib\libc.a(lib_a-makebuf.o)
                                0x606 (size before relaxing)
 .debug_str     0x00001e7c       0x47 c:/altera/13.0sp1/nios2eds/bin/gnu/h-i686-mingw32/bin/../lib/gcc/nios2-elf/4.1.2/../../../../nios2-elf/lib\libc.a(lib_a-memchr.o)
                                0x18b (size before relaxing)
 .debug_str     0x00001ec3       0xf8 c:/altera/13.0sp1/nios2eds/bin/gnu/h-i686-mingw32/bin/../lib/gcc/nios2-elf/4.1.2/../../../../nios2-elf/lib\libc.a(lib_a-mprec.o)
                                0x60e (size before relaxing)
 .debug_str     0x00001fbb       0x59 c:/altera/13.0sp1/nios2eds/bin/gnu/h-i686-mingw32/bin/../lib/gcc/nios2-elf/4.1.2/../../../../nios2-elf/lib\libc.a(lib_a-reallocr.o)
                                0x5c3 (size before relaxing)
 .debug_str     0x00002014       0x4d c:/altera/13.0sp1/nios2eds/bin/gnu/h-i686-mingw32/bin/../lib/gcc/nios2-elf/4.1.2/../../../../nios2-elf/lib\libc.a(lib_a-refill.o)
                                0x51a (size before relaxing)
 .debug_str     0x00002061       0xdc c:/altera/13.0sp1/nios2eds/bin/gnu/h-i686-mingw32/bin/../lib/gcc/nios2-elf/4.1.2/../../../../nios2-elf/lib\libc.a(lib_a-s_isinfd.o)
                                0x18a (size before relaxing)
 .debug_str     0x0000213d       0x46 c:/altera/13.0sp1/nios2eds/bin/gnu/h-i686-mingw32/bin/../lib/gcc/nios2-elf/4.1.2/../../../../nios2-elf/lib\libc.a(lib_a-s_isnand.o)
                                0x18a (size before relaxing)
 .debug_str     0x00002183       0x62 c:/altera/13.0sp1/nios2eds/bin/gnu/h-i686-mingw32/bin/../lib/gcc/nios2-elf/4.1.2/../../../../nios2-elf/lib\libc.a(lib_a-stdio.o)
                                0x531 (size before relaxing)
 .debug_str     0x000021e5       0x4c c:/altera/13.0sp1/nios2eds/bin/gnu/h-i686-mingw32/bin/../lib/gcc/nios2-elf/4.1.2/../../../../nios2-elf/lib\libc.a(lib_a-writer.o)
                                0x50e (size before relaxing)
 .debug_str     0x00002231       0x19 c:/altera/13.0sp1/nios2eds/bin/gnu/h-i686-mingw32/bin/../lib/gcc/nios2-elf/4.1.2/../../../../nios2-elf/lib\libc.a(lib_a-callocr.o)
                                0x542 (size before relaxing)
 .debug_str     0x0000224a       0x43 c:/altera/13.0sp1/nios2eds/bin/gnu/h-i686-mingw32/bin/../lib/gcc/nios2-elf/4.1.2/../../../../nios2-elf/lib\libc.a(lib_a-closer.o)
                                0x4fe (size before relaxing)
 .debug_str     0x0000228d       0x4b c:/altera/13.0sp1/nios2eds/bin/gnu/h-i686-mingw32/bin/../lib/gcc/nios2-elf/4.1.2/../../../../nios2-elf/lib\libc.a(lib_a-fclose.o)
                                0x516 (size before relaxing)
 .debug_str     0x000022d8       0x49 c:/altera/13.0sp1/nios2eds/bin/gnu/h-i686-mingw32/bin/../lib/gcc/nios2-elf/4.1.2/../../../../nios2-elf/lib\libc.a(lib_a-fstatr.o)
                                0x5f1 (size before relaxing)
 .debug_str     0x00002321       0x45 c:/altera/13.0sp1/nios2eds/bin/gnu/h-i686-mingw32/bin/../lib/gcc/nios2-elf/4.1.2/../../../../nios2-elf/lib\libc.a(lib_a-isattyr.o)
                                0x500 (size before relaxing)
 .debug_str     0x00002366       0x43 c:/altera/13.0sp1/nios2eds/bin/gnu/h-i686-mingw32/bin/../lib/gcc/nios2-elf/4.1.2/../../../../nios2-elf/lib\libc.a(lib_a-lseekr.o)
                                0x50c (size before relaxing)
 .debug_str     0x000023a9       0x41 c:/altera/13.0sp1/nios2eds/bin/gnu/h-i686-mingw32/bin/../lib/gcc/nios2-elf/4.1.2/../../../../nios2-elf/lib\libc.a(lib_a-readr.o)
                                0x50c (size before relaxing)
 .debug_str     0x000023ea       0x35 c:/altera/13.0sp1/nios2eds/bin/gnu/h-i686-mingw32/bin/../lib/gcc/nios2-elf/4.1.2\libgcc.a(_udivdi3.o)
                                0x1f7 (size before relaxing)
 .debug_str     0x0000241f        0xa c:/altera/13.0sp1/nios2eds/bin/gnu/h-i686-mingw32/bin/../lib/gcc/nios2-elf/4.1.2\libgcc.a(_umoddi3.o)
                                0x1f7 (size before relaxing)
 .debug_str     0x00002429       0x35 c:/altera/13.0sp1/nios2eds/bin/gnu/h-i686-mingw32/bin/../lib/gcc/nios2-elf/4.1.2\libgcc.a(_div_df.o)
                                0x231 (size before relaxing)
 .debug_str     0x0000245e        0x8 c:/altera/13.0sp1/nios2eds/bin/gnu/h-i686-mingw32/bin/../lib/gcc/nios2-elf/4.1.2\libgcc.a(_eq_df.o)
                                0x1fe (size before relaxing)
 .debug_str     0x00002466        0x8 c:/altera/13.0sp1/nios2eds/bin/gnu/h-i686-mingw32/bin/../lib/gcc/nios2-elf/4.1.2\libgcc.a(_ne_df.o)
                                0x1fe (size before relaxing)
 .debug_str     0x0000246e        0x8 c:/altera/13.0sp1/nios2eds/bin/gnu/h-i686-mingw32/bin/../lib/gcc/nios2-elf/4.1.2\libgcc.a(_gt_df.o)
                                0x1fe (size before relaxing)
 .debug_str     0x00002476        0x8 c:/altera/13.0sp1/nios2eds/bin/gnu/h-i686-mingw32/bin/../lib/gcc/nios2-elf/4.1.2\libgcc.a(_lt_df.o)
                                0x1fe (size before relaxing)
 .debug_str     0x0000247e       0x11 c:/altera/13.0sp1/nios2eds/bin/gnu/h-i686-mingw32/bin/../lib/gcc/nios2-elf/4.1.2\libgcc.a(_si_to_df.o)
                                0x1de (size before relaxing)
 .debug_str     0x0000248f       0x76 c:/altera/13.0sp1/nios2eds/bin/gnu/h-i686-mingw32/bin/../lib/gcc/nios2-elf/4.1.2\libgcc.a(lib2-divmod.o)
                                0x1b4 (size before relaxing)
 .debug_str     0x00002505       0x1c ../SemaforoNet_bsp/\libucosii_bsp.a(alt_exit.o)
 .debug_str     0x00002521       0x2d ../SemaforoNet_bsp/\libucosii_bsp.a(alt_flash_dev.o)
 .debug_str     0x0000254e       0x12 ../SemaforoNet_bsp/\libucosii_bsp.a(alt_fstat.o)
 .debug_str     0x00002560       0x21 ../SemaforoNet_bsp/\libucosii_bsp.a(alt_irq_register.o)
 .debug_str     0x00002581       0x12 ../SemaforoNet_bsp/\libucosii_bsp.a(alt_isatty.o)
 .debug_str     0x00002593       0x12 ../SemaforoNet_bsp/\libucosii_bsp.a(alt_lseek.o)
 .debug_str     0x000025a5       0x12 ../SemaforoNet_bsp/\libucosii_bsp.a(alt_main.o)
 .debug_str     0x000025b7       0x1a ../SemaforoNet_bsp/\libucosii_bsp.a(alt_sbrk.o)
 .debug_str     0x000025d1       0x12 ../SemaforoNet_bsp/\libucosii_bsp.a(alt_usleep.o)
 .debug_str     0x000025e3       0x36 ../SemaforoNet_bsp/\libucosii_bsp.a(alt_env_lock.o)
 .debug_str     0x00002619       0x36 ../SemaforoNet_bsp/\libucosii_bsp.a(alt_malloc_lock.o)
 .debug_str     0x0000264f       0x46 ../SemaforoNet_bsp/\libucosii_bsp.a(os_core.o)
 .debug_str     0x00002695       0x2b ../SemaforoNet_bsp/\libucosii_bsp.a(os_dbg.o)
 .debug_str     0x000026c0       0x4e ../SemaforoNet_bsp/\libucosii_bsp.a(os_flag.o)
 .debug_str     0x0000270e       0x2c ../SemaforoNet_bsp/\libucosii_bsp.a(os_mem.o)
 .debug_str     0x0000273a       0x36 ../SemaforoNet_bsp/\libucosii_bsp.a(os_q.o)
 .debug_str     0x00002770       0x36 ../SemaforoNet_bsp/\libucosii_bsp.a(os_sem.o)
 .debug_str     0x000027a6       0x23 ../SemaforoNet_bsp/\libucosii_bsp.a(os_task.o)
 .debug_str     0x000027c9       0x1f ../SemaforoNet_bsp/\libucosii_bsp.a(os_time.o)
 .debug_str     0x000027e8       0x67 ../SemaforoNet_bsp/\libucosii_bsp.a(alt_sys_init.o)
 .debug_str     0x0000284f       0x82 ../SemaforoNet_bsp/\libucosii_bsp.a(altera_avalon_cfi_flash.o)
 .debug_str     0x000028d1       0x6d ../SemaforoNet_bsp/\libucosii_bsp.a(altera_avalon_cfi_flash_table.o)
 .debug_str     0x0000293e       0x90 ../SemaforoNet_bsp/\libucosii_bsp.a(altera_avalon_epcs_flash_controller.o)
 .debug_str     0x000029ce       0x12 ../SemaforoNet_bsp/\libucosii_bsp.a(altera_avalon_jtag_uart_fd.o)
 .debug_str     0x000029e0       0x1a ../SemaforoNet_bsp/\libucosii_bsp.a(altera_avalon_jtag_uart_init.o)
 .debug_str     0x000029fa       0x12 ../SemaforoNet_bsp/\libucosii_bsp.a(altera_avalon_jtag_uart_ioctl.o)
 .debug_str     0x00002a0c       0x22 ../SemaforoNet_bsp/\libucosii_bsp.a(altera_avalon_jtag_uart_read.o)
 .debug_str     0x00002a2e       0x22 ../SemaforoNet_bsp/\libucosii_bsp.a(altera_avalon_jtag_uart_write.o)
 .debug_str     0x00002a50       0x25 ../SemaforoNet_bsp/\libucosii_bsp.a(altera_avalon_lcd_16207.o)
 .debug_str     0x00002a75       0x12 ../SemaforoNet_bsp/\libucosii_bsp.a(altera_avalon_lcd_16207_fd.o)
 .debug_str     0x00002a87       0x12 ../SemaforoNet_bsp/\libucosii_bsp.a(altera_avalon_timer_sc.o)
 .debug_str     0x00002a99       0x12 ../SemaforoNet_bsp/\libucosii_bsp.a(altera_avalon_uart_fd.o)
 .debug_str     0x00002aab       0x1f ../SemaforoNet_bsp/\libucosii_bsp.a(altera_avalon_uart_init.o)
 .debug_str     0x00002aca       0x1a ../SemaforoNet_bsp/\libucosii_bsp.a(altera_avalon_uart_read.o)
 .debug_str     0x00002ae4       0x1a ../SemaforoNet_bsp/\libucosii_bsp.a(altera_avalon_uart_write.o)
 .debug_str     0x00002afe       0x2e ../SemaforoNet_bsp/\libucosii_bsp.a(epcs_commands.o)
 .debug_str     0x00002b2c       0x12 ../SemaforoNet_bsp/\libucosii_bsp.a(alt_iniche_close.o)
 .debug_str     0x00002b3e       0x12 ../SemaforoNet_bsp/\libucosii_bsp.a(alt_iniche_dev.o)
 .debug_str     0x00002b50       0x12 ../SemaforoNet_bsp/\libucosii_bsp.a(alt_iniche_read.o)
 .debug_str     0x00002b62       0x12 ../SemaforoNet_bsp/\libucosii_bsp.a(alt_iniche_write.o)
 .debug_str     0x00002b74       0x12 ../SemaforoNet_bsp/\libucosii_bsp.a(ipnet.o)
 .debug_str     0x00002b86       0x12 ../SemaforoNet_bsp/\libucosii_bsp.a(ipstart.o)
 .debug_str     0x00002b98       0x12 ../SemaforoNet_bsp/\libucosii_bsp.a(igmp_cmn.o)
 .debug_str     0x00002baa       0x20 ../SemaforoNet_bsp/\libucosii_bsp.a(bsdsock.o)
 .debug_str     0x00002bca       0x12 ../SemaforoNet_bsp/\libucosii_bsp.a(cksum.o)
 .debug_str     0x00002bdc       0x12 ../SemaforoNet_bsp/\libucosii_bsp.a(in_utils.o)
 .debug_str     0x00002bee       0x12 ../SemaforoNet_bsp/\libucosii_bsp.a(netmain.o)
 .debug_str     0x00002c00       0x12 ../SemaforoNet_bsp/\libucosii_bsp.a(parseip.o)
 .debug_str     0x00002c12       0x12 ../SemaforoNet_bsp/\libucosii_bsp.a(tk_crnos.o)
 .debug_str     0x00002c24       0x2e ../SemaforoNet_bsp/\libucosii_bsp.a(dhcpclnt.o)
 .debug_str     0x00002c52       0x12 ../SemaforoNet_bsp/\libucosii_bsp.a(dhcputil.o)
 .debug_str     0x00002c64       0x12 ../SemaforoNet_bsp/\libucosii_bsp.a(pktalloc.o)
 .debug_str     0x00002c76       0x12 ../SemaforoNet_bsp/\libucosii_bsp.a(q.o)
 .debug_str     0x00002c88       0x12 ../SemaforoNet_bsp/\libucosii_bsp.a(udp_open.o)
 .debug_str     0x00002c9a       0x20 ../SemaforoNet_bsp/\libucosii_bsp.a(brdutils.o)
 .debug_str     0x00002cba       0x22 ../SemaforoNet_bsp/\libucosii_bsp.a(osportco.o)
 .debug_str     0x00002cdc       0x12 ../SemaforoNet_bsp/\libucosii_bsp.a(targnios.o)
 .debug_str     0x00002cee       0x1e ../SemaforoNet_bsp/\libucosii_bsp.a(nptcp.o)
 .debug_str     0x00002d0c       0x12 ../SemaforoNet_bsp/\libucosii_bsp.a(rawsock.o)
 .debug_str     0x00002d1e       0x34 ../SemaforoNet_bsp/\libucosii_bsp.a(sockcall.o)
 .debug_str     0x00002d52       0x18 ../SemaforoNet_bsp/\libucosii_bsp.a(socket.o)
 .debug_str     0x00002d6a       0x12 ../SemaforoNet_bsp/\libucosii_bsp.a(socket2.o)
 .debug_str     0x00002d7c       0x12 ../SemaforoNet_bsp/\libucosii_bsp.a(soselect.o)
 .debug_str     0x00002d8e       0x12 ../SemaforoNet_bsp/\libucosii_bsp.a(tcp_in.o)
 .debug_str     0x00002da0       0x12 ../SemaforoNet_bsp/\libucosii_bsp.a(tcp_out.o)
 .debug_str     0x00002db2       0x12 ../SemaforoNet_bsp/\libucosii_bsp.a(tcp_subr.o)
 .debug_str     0x00002dc4       0x12 ../SemaforoNet_bsp/\libucosii_bsp.a(tcp_timr.o)
 .debug_str     0x00002dd6       0x12 ../SemaforoNet_bsp/\libucosii_bsp.a(tcp_usr.o)
 .debug_str     0x00002de8       0x12 ../SemaforoNet_bsp/\libucosii_bsp.a(tcpport.o)
 .debug_str     0x00002dfa       0x1a ../SemaforoNet_bsp/\libucosii_bsp.a(udpsock.o)
 .debug_str     0x00002e14       0x23 ../SemaforoNet_bsp/\libucosii_bsp.a(alt_alarm_start.o)
 .debug_str     0x00002e37       0x12 ../SemaforoNet_bsp/\libucosii_bsp.a(alt_busy_sleep.o)
 .debug_str     0x00002e49       0x12 ../SemaforoNet_bsp/\libucosii_bsp.a(alt_close.o)
 .debug_str     0x00002e5b       0x12 ../SemaforoNet_bsp/\libucosii_bsp.a(alt_dcache_flush.o)
 .debug_str     0x00002e6d       0x12 ../SemaforoNet_bsp/\libucosii_bsp.a(alt_dev.o)
 .debug_str     0x00002e7f       0x12 ../SemaforoNet_bsp/\libucosii_bsp.a(alt_dev_llist_insert.o)
 .debug_str     0x00002e91       0x12 ../SemaforoNet_bsp/\libucosii_bsp.a(alt_errno.o)
 .debug_str     0x00002ea3       0x12 ../SemaforoNet_bsp/\libucosii_bsp.a(alt_find_dev.o)
 .debug_str     0x00002eb5       0x18 ../SemaforoNet_bsp/\libucosii_bsp.a(alt_iic.o)
 .debug_str     0x00002ecd       0x1a ../SemaforoNet_bsp/\libucosii_bsp.a(alt_iic_isr_register.o)
 .debug_str     0x00002ee7       0x12 ../SemaforoNet_bsp/\libucosii_bsp.a(alt_io_redirect.o)
 .debug_str     0x00002ef9       0x12 ../SemaforoNet_bsp/\libucosii_bsp.a(alt_irq_handler.o)
 .debug_str     0x00002f0b       0x12 ../SemaforoNet_bsp/\libucosii_bsp.a(alt_open.o)
 .debug_str     0x00002f1d       0x12 ../SemaforoNet_bsp/\libucosii_bsp.a(alt_read.o)
 .debug_str     0x00002f2f       0x12 ../SemaforoNet_bsp/\libucosii_bsp.a(alt_release_fd.o)
 .debug_str     0x00002f41       0x12 ../SemaforoNet_bsp/\libucosii_bsp.a(alt_remap_cached.o)
 .debug_str     0x00002f53       0x12 ../SemaforoNet_bsp/\libucosii_bsp.a(alt_remap_uncached.o)
 .debug_str     0x00002f65       0x1a ../SemaforoNet_bsp/\libucosii_bsp.a(alt_tick.o)
 .debug_str     0x00002f7f       0x12 ../SemaforoNet_bsp/\libucosii_bsp.a(alt_write.o)
 .debug_str     0x00002f91       0x12 ../SemaforoNet_bsp/\libucosii_bsp.a(altera_nios2_qsys_irq.o)
 .debug_str     0x00002fa3       0x20 ../SemaforoNet_bsp/\libucosii_bsp.a(os_cpu_c.o)
 .debug_str     0x00002fc3       0x76 ../SemaforoNet_bsp/\libucosii_bsp.a(altera_avalon_cfi_flash_amd.o)
 .debug_str     0x00003039       0x7d ../SemaforoNet_bsp/\libucosii_bsp.a(altera_avalon_cfi_flash_intel.o)
 .debug_str     0x000030b6       0x12 ../SemaforoNet_bsp/\libucosii_bsp.a(allports.o)
 .debug_str     0x000030c8       0x1b ../SemaforoNet_bsp/\libucosii_bsp.a(timeouts.o)
 .debug_str     0x000030e3       0x12 ../SemaforoNet_bsp/\libucosii_bsp.a(tk_misc.o)
 .debug_str     0x000030f5       0x12 ../SemaforoNet_bsp/\libucosii_bsp.a(alt_iniche_fcntl.o)
 .debug_str     0x00003107       0x3d ../SemaforoNet_bsp/\libucosii_bsp.a(et_arp.o)
 .debug_str     0x00003144       0x12 ../SemaforoNet_bsp/\libucosii_bsp.a(iface.o)
 .debug_str     0x00003156       0x2c ../SemaforoNet_bsp/\libucosii_bsp.a(ip.o)
 .debug_str     0x00003182       0x4e ../SemaforoNet_bsp/\libucosii_bsp.a(ip_reasm.o)
 .debug_str     0x000031d0       0x12 ../SemaforoNet_bsp/\libucosii_bsp.a(ipdemux.o)
 .debug_str     0x000031e2       0x12 ../SemaforoNet_bsp/\libucosii_bsp.a(ipmc.o)
 .debug_str     0x000031f4       0x12 ../SemaforoNet_bsp/\libucosii_bsp.a(ipport.o)
 .debug_str     0x00003206       0x12 ../SemaforoNet_bsp/\libucosii_bsp.a(ipraw.o)
 .debug_str     0x00003218       0x12 ../SemaforoNet_bsp/\libucosii_bsp.a(iproute.o)
 .debug_str     0x0000322a       0x12 ../SemaforoNet_bsp/\libucosii_bsp.a(udp.o)
 .debug_str     0x0000323c       0x12 ../SemaforoNet_bsp/\libucosii_bsp.a(igmp.o)
 .debug_str     0x0000324e       0x20 ../SemaforoNet_bsp/\libucosii_bsp.a(igmp2.o)
 .debug_str     0x0000326e       0x12 ../SemaforoNet_bsp/\libucosii_bsp.a(ipopt.o)
 .debug_str     0x00003280       0x12 ../SemaforoNet_bsp/\libucosii_bsp.a(u_mctest.o)
 .debug_str     0x00003292       0x12 ../SemaforoNet_bsp/\libucosii_bsp.a(dhcsetup.o)
 .debug_str     0x000032a4       0x1b ../SemaforoNet_bsp/\libucosii_bsp.a(memdev.o)
 .debug_str     0x000032bf       0x12 ../SemaforoNet_bsp/\libucosii_bsp.a(tcpcksum.o)
 .debug_str     0x000032d1       0x12 ../SemaforoNet_bsp/\libucosii_bsp.a(in_pcb.o)
 .debug_str     0x000032e3       0x2b ../SemaforoNet_bsp/\libucosii_bsp.a(vfsfiles.o)
 .debug_str     0x0000330e       0x12 ../SemaforoNet_bsp/\libucosii_bsp.a(vfsport.o)
 .debug_str     0x00003320       0x12 ../SemaforoNet_bsp/\libucosii_bsp.a(alt_fcntl.o)
 .debug_str     0x00003332       0x12 ../SemaforoNet_bsp/\libucosii_bsp.a(alt_find_file.o)
 .debug_str     0x00003344       0x12 ../SemaforoNet_bsp/\libucosii_bsp.a(alt_get_fd.o)
 .debug_str     0x00003356       0x12 ../SemaforoNet_bsp/\libucosii_bsp.a(icmp.o)
 .debug_str     0x00003368       0x3b c:/altera/13.0sp1/nios2eds/bin/gnu/h-i686-mingw32/bin/../lib/gcc/nios2-elf/4.1.2/../../../../nios2-elf/lib\libc.a(lib_a-atexit.o)
                                0x1bf (size before relaxing)
 .debug_str     0x000033a3       0x46 c:/altera/13.0sp1/nios2eds/bin/gnu/h-i686-mingw32/bin/../lib/gcc/nios2-elf/4.1.2/../../../../nios2-elf/lib\libc.a(lib_a-atoi.o)
                                0x4fc (size before relaxing)
 .debug_str     0x000033e9       0x42 c:/altera/13.0sp1/nios2eds/bin/gnu/h-i686-mingw32/bin/../lib/gcc/nios2-elf/4.1.2/../../../../nios2-elf/lib\libc.a(lib_a-calloc.o)
                                0x510 (size before relaxing)
 .debug_str     0x0000342b       0x42 c:/altera/13.0sp1/nios2eds/bin/gnu/h-i686-mingw32/bin/../lib/gcc/nios2-elf/4.1.2/../../../../nios2-elf/lib\libc.a(lib_a-memcmp.o)
                                0x16a (size before relaxing)
 .debug_str     0x0000346d       0x42 c:/altera/13.0sp1/nios2eds/bin/gnu/h-i686-mingw32/bin/../lib/gcc/nios2-elf/4.1.2/../../../../nios2-elf/lib\libc.a(lib_a-strcpy.o)
                                0x185 (size before relaxing)
 .debug_str     0x000034af       0x44 c:/altera/13.0sp1/nios2eds/bin/gnu/h-i686-mingw32/bin/../lib/gcc/nios2-elf/4.1.2/../../../../nios2-elf/lib\libc.a(lib_a-strncmp.o)
                                0x16c (size before relaxing)
 .debug_str     0x000034f3       0x4e c:/altera/13.0sp1/nios2eds/bin/gnu/h-i686-mingw32/bin/../lib/gcc/nios2-elf/4.1.2/../../../../nios2-elf/lib\libc.a(lib_a-vprintf.o)
                                0x526 (size before relaxing)
 .debug_str     0x00003541       0x51 c:/altera/13.0sp1/nios2eds/bin/gnu/h-i686-mingw32/bin/../lib/gcc/nios2-elf/4.1.2/../../../../nios2-elf/lib\libc.a(lib_a-vsprintf.o)
                                0x52e (size before relaxing)
 .debug_str     0x00003592       0x51 c:/altera/13.0sp1/nios2eds/bin/gnu/h-i686-mingw32/bin/../lib/gcc/nios2-elf/4.1.2/../../../../nios2-elf/lib\libc.a(lib_a-__atexit.o)
                                0x524 (size before relaxing)

.debug_loc      0x00000000    0x13d20
 *(.debug_loc)
 .debug_loc     0x00000000       0x81 obj/default/alt_error_handler.o
 .debug_loc     0x00000081      0x25a obj/default/dm9000a.o
 .debug_loc     0x000002db       0x81 obj/default/led.o
 .debug_loc     0x0000035c       0xad obj/default/main.o
 .debug_loc     0x00000409      0x12e obj/default/network_utilities.o
 .debug_loc     0x00000537      0x15b obj/default/simple_socket_server.o
 .debug_loc     0x00000692       0x87 c:/altera/13.0sp1/nios2eds/bin/gnu/h-i686-mingw32/bin/../lib/gcc/nios2-elf/4.1.2\libgcc.a(_fixunsdfsi.o)
 .debug_loc     0x00000719      0x47a c:/altera/13.0sp1/nios2eds/bin/gnu/h-i686-mingw32/bin/../lib/gcc/nios2-elf/4.1.2\libgcc.a(_addsub_df.o)
 .debug_loc     0x00000b93      0x3b4 c:/altera/13.0sp1/nios2eds/bin/gnu/h-i686-mingw32/bin/../lib/gcc/nios2-elf/4.1.2\libgcc.a(_mul_df.o)
 .debug_loc     0x00000f47       0x70 c:/altera/13.0sp1/nios2eds/bin/gnu/h-i686-mingw32/bin/../lib/gcc/nios2-elf/4.1.2\libgcc.a(_ge_df.o)
 .debug_loc     0x00000fb7       0x8b c:/altera/13.0sp1/nios2eds/bin/gnu/h-i686-mingw32/bin/../lib/gcc/nios2-elf/4.1.2\libgcc.a(_df_to_si.o)
 .debug_loc     0x00001042       0x5b c:/altera/13.0sp1/nios2eds/bin/gnu/h-i686-mingw32/bin/../lib/gcc/nios2-elf/4.1.2\libgcc.a(_usi_to_df.o)
 .debug_loc     0x0000109d       0xc4 c:/altera/13.0sp1/nios2eds/bin/gnu/h-i686-mingw32/bin/../lib/gcc/nios2-elf/4.1.2\libgcc.a(_muldi3.o)
 .debug_loc     0x00001161       0x1e c:/altera/13.0sp1/nios2eds/bin/gnu/h-i686-mingw32/bin/../lib/gcc/nios2-elf/4.1.2\libgcc.a(_clzsi2.o)
 .debug_loc     0x0000117f      0x184 c:/altera/13.0sp1/nios2eds/bin/gnu/h-i686-mingw32/bin/../lib/gcc/nios2-elf/4.1.2\libgcc.a(_pack_df.o)
 .debug_loc     0x00001303       0xe5 c:/altera/13.0sp1/nios2eds/bin/gnu/h-i686-mingw32/bin/../lib/gcc/nios2-elf/4.1.2\libgcc.a(_unpack_df.o)
 .debug_loc     0x000013e8       0x3d c:/altera/13.0sp1/nios2eds/bin/gnu/h-i686-mingw32/bin/../lib/gcc/nios2-elf/4.1.2/../../../../nios2-elf/lib\libc.a(lib_a-exit.o)
 .debug_loc     0x00001425       0xf1 c:/altera/13.0sp1/nios2eds/bin/gnu/h-i686-mingw32/bin/../lib/gcc/nios2-elf/4.1.2/../../../../nios2-elf/lib\libc.a(lib_a-fprintf.o)
 .debug_loc     0x00001516      0x18e c:/altera/13.0sp1/nios2eds/bin/gnu/h-i686-mingw32/bin/../lib/gcc/nios2-elf/4.1.2/../../../../nios2-elf/lib\libc.a(lib_a-fwrite.o)
 .debug_loc     0x000016a4      0x10b c:/altera/13.0sp1/nios2eds/bin/gnu/h-i686-mingw32/bin/../lib/gcc/nios2-elf/4.1.2/../../../../nios2-elf/lib\libc.a(lib_a-getc.o)
 .debug_loc     0x000017af       0x3c c:/altera/13.0sp1/nios2eds/bin/gnu/h-i686-mingw32/bin/../lib/gcc/nios2-elf/4.1.2/../../../../nios2-elf/lib\libc.a(lib_a-malloc.o)
 .debug_loc     0x000017eb      0xaeb c:/altera/13.0sp1/nios2eds/bin/gnu/h-i686-mingw32/bin/../lib/gcc/nios2-elf/4.1.2/../../../../nios2-elf/lib\libc.a(lib_a-mallocr.o)
 .debug_loc     0x000022d6       0xca c:/altera/13.0sp1/nios2eds/bin/gnu/h-i686-mingw32/bin/../lib/gcc/nios2-elf/4.1.2/../../../../nios2-elf/lib\libc.a(lib_a-memcpy.o)
 .debug_loc     0x000023a0      0x117 c:/altera/13.0sp1/nios2eds/bin/gnu/h-i686-mingw32/bin/../lib/gcc/nios2-elf/4.1.2/../../../../nios2-elf/lib\libc.a(lib_a-memmove.o)
 .debug_loc     0x000024b7       0xa1 c:/altera/13.0sp1/nios2eds/bin/gnu/h-i686-mingw32/bin/../lib/gcc/nios2-elf/4.1.2/../../../../nios2-elf/lib\libc.a(lib_a-memset.o)
 .debug_loc     0x00002558       0xa2 c:/altera/13.0sp1/nios2eds/bin/gnu/h-i686-mingw32/bin/../lib/gcc/nios2-elf/4.1.2/../../../../nios2-elf/lib\libc.a(lib_a-perror.o)
 .debug_loc     0x000025fa       0xcb c:/altera/13.0sp1/nios2eds/bin/gnu/h-i686-mingw32/bin/../lib/gcc/nios2-elf/4.1.2/../../../../nios2-elf/lib\libc.a(lib_a-printf.o)
 .debug_loc     0x000026c5      0x20d c:/altera/13.0sp1/nios2eds/bin/gnu/h-i686-mingw32/bin/../lib/gcc/nios2-elf/4.1.2/../../../../nios2-elf/lib\libc.a(lib_a-putc.o)
 .debug_loc     0x000028d2       0x44 c:/altera/13.0sp1/nios2eds/bin/gnu/h-i686-mingw32/bin/../lib/gcc/nios2-elf/4.1.2/../../../../nios2-elf/lib\libc.a(lib_a-putchar.o)
 .debug_loc     0x00002916       0xa2 c:/altera/13.0sp1/nios2eds/bin/gnu/h-i686-mingw32/bin/../lib/gcc/nios2-elf/4.1.2/../../../../nios2-elf/lib\libc.a(lib_a-puts.o)
 .debug_loc     0x000029b8       0x6e c:/altera/13.0sp1/nios2eds/bin/gnu/h-i686-mingw32/bin/../lib/gcc/nios2-elf/4.1.2/../../../../nios2-elf/lib\libc.a(lib_a-rget.o)
 .debug_loc     0x00002a26       0x5b c:/altera/13.0sp1/nios2eds/bin/gnu/h-i686-mingw32/bin/../lib/gcc/nios2-elf/4.1.2/../../../../nios2-elf/lib\libc.a(lib_a-sbrkr.o)
 .debug_loc     0x00002a81       0xc0 c:/altera/13.0sp1/nios2eds/bin/gnu/h-i686-mingw32/bin/../lib/gcc/nios2-elf/4.1.2/../../../../nios2-elf/lib\libc.a(lib_a-sprintf.o)
 .debug_loc     0x00002b41       0xf3 c:/altera/13.0sp1/nios2eds/bin/gnu/h-i686-mingw32/bin/../lib/gcc/nios2-elf/4.1.2/../../../../nios2-elf/lib\libc.a(lib_a-strchr.o)
 .debug_loc     0x00002c34       0x65 c:/altera/13.0sp1/nios2eds/bin/gnu/h-i686-mingw32/bin/../lib/gcc/nios2-elf/4.1.2/../../../../nios2-elf/lib\libc.a(lib_a-strcmp.o)
 .debug_loc     0x00002c99      0x418 c:/altera/13.0sp1/nios2eds/bin/gnu/h-i686-mingw32/bin/../lib/gcc/nios2-elf/4.1.2/../../../../nios2-elf/lib\libc.a(lib_a-strerror.o)
 .debug_loc     0x000030b1       0x3c c:/altera/13.0sp1/nios2eds/bin/gnu/h-i686-mingw32/bin/../lib/gcc/nios2-elf/4.1.2/../../../../nios2-elf/lib\libc.a(lib_a-strlen.o)
 .debug_loc     0x000030ed       0xeb c:/altera/13.0sp1/nios2eds/bin/gnu/h-i686-mingw32/bin/../lib/gcc/nios2-elf/4.1.2/../../../../nios2-elf/lib\libc.a(lib_a-strncpy.o)
 .debug_loc     0x000031d8      0x346 c:/altera/13.0sp1/nios2eds/bin/gnu/h-i686-mingw32/bin/../lib/gcc/nios2-elf/4.1.2/../../../../nios2-elf/lib\libc.a(lib_a-strtol.o)
 .debug_loc     0x0000351e     0x1e0d c:/altera/13.0sp1/nios2eds/bin/gnu/h-i686-mingw32/bin/../lib/gcc/nios2-elf/4.1.2/../../../../nios2-elf/lib\libc.a(lib_a-vfprintf.o)
 .debug_loc     0x0000532b      0x157 c:/altera/13.0sp1/nios2eds/bin/gnu/h-i686-mingw32/bin/../lib/gcc/nios2-elf/4.1.2/../../../../nios2-elf/lib\libc.a(lib_a-wbuf.o)
 .debug_loc     0x00005482       0x7c c:/altera/13.0sp1/nios2eds/bin/gnu/h-i686-mingw32/bin/../lib/gcc/nios2-elf/4.1.2/../../../../nios2-elf/lib\libc.a(lib_a-wsetup.o)
 .debug_loc     0x000054fe      0x1cb c:/altera/13.0sp1/nios2eds/bin/gnu/h-i686-mingw32/bin/../lib/gcc/nios2-elf/4.1.2/../../../../nios2-elf/lib\libc.a(lib_a-__call_atexit.o)
 .debug_loc     0x000056c9     0x1dfa c:/altera/13.0sp1/nios2eds/bin/gnu/h-i686-mingw32/bin/../lib/gcc/nios2-elf/4.1.2/../../../../nios2-elf/lib\libc.a(lib_a-dtoa.o)
 .debug_loc     0x000074c3      0x1f6 c:/altera/13.0sp1/nios2eds/bin/gnu/h-i686-mingw32/bin/../lib/gcc/nios2-elf/4.1.2/../../../../nios2-elf/lib\libc.a(lib_a-fflush.o)
 .debug_loc     0x000076b9      0x19f c:/altera/13.0sp1/nios2eds/bin/gnu/h-i686-mingw32/bin/../lib/gcc/nios2-elf/4.1.2/../../../../nios2-elf/lib\libc.a(lib_a-findfp.o)
 .debug_loc     0x00007858      0x14d c:/altera/13.0sp1/nios2eds/bin/gnu/h-i686-mingw32/bin/../lib/gcc/nios2-elf/4.1.2/../../../../nios2-elf/lib\libc.a(lib_a-fputc.o)
 .debug_loc     0x000079a5       0xcb c:/altera/13.0sp1/nios2eds/bin/gnu/h-i686-mingw32/bin/../lib/gcc/nios2-elf/4.1.2/../../../../nios2-elf/lib\libc.a(lib_a-fputs.o)
 .debug_loc     0x00007a70      0x4a7 c:/altera/13.0sp1/nios2eds/bin/gnu/h-i686-mingw32/bin/../lib/gcc/nios2-elf/4.1.2/../../../../nios2-elf/lib\libc.a(lib_a-freer.o)
 .debug_loc     0x00007f17      0x4e4 c:/altera/13.0sp1/nios2eds/bin/gnu/h-i686-mingw32/bin/../lib/gcc/nios2-elf/4.1.2/../../../../nios2-elf/lib\libc.a(lib_a-fvwrite.o)
 .debug_loc     0x000083fb      0x1d2 c:/altera/13.0sp1/nios2eds/bin/gnu/h-i686-mingw32/bin/../lib/gcc/nios2-elf/4.1.2/../../../../nios2-elf/lib\libc.a(lib_a-fwalk.o)
 .debug_loc     0x000085cd       0xe1 c:/altera/13.0sp1/nios2eds/bin/gnu/h-i686-mingw32/bin/../lib/gcc/nios2-elf/4.1.2/../../../../nios2-elf/lib\libc.a(lib_a-locale.o)
 .debug_loc     0x000086ae      0x11c c:/altera/13.0sp1/nios2eds/bin/gnu/h-i686-mingw32/bin/../lib/gcc/nios2-elf/4.1.2/../../../../nios2-elf/lib\libc.a(lib_a-makebuf.o)
 .debug_loc     0x000087ca      0x106 c:/altera/13.0sp1/nios2eds/bin/gnu/h-i686-mingw32/bin/../lib/gcc/nios2-elf/4.1.2/../../../../nios2-elf/lib\libc.a(lib_a-memchr.o)
 .debug_loc     0x000088d0     0x14d6 c:/altera/13.0sp1/nios2eds/bin/gnu/h-i686-mingw32/bin/../lib/gcc/nios2-elf/4.1.2/../../../../nios2-elf/lib\libc.a(lib_a-mprec.o)
 .debug_loc     0x00009da6      0x8c0 c:/altera/13.0sp1/nios2eds/bin/gnu/h-i686-mingw32/bin/../lib/gcc/nios2-elf/4.1.2/../../../../nios2-elf/lib\libc.a(lib_a-reallocr.o)
 .debug_loc     0x0000a666       0xd1 c:/altera/13.0sp1/nios2eds/bin/gnu/h-i686-mingw32/bin/../lib/gcc/nios2-elf/4.1.2/../../../../nios2-elf/lib\libc.a(lib_a-refill.o)
 .debug_loc     0x0000a737       0x36 c:/altera/13.0sp1/nios2eds/bin/gnu/h-i686-mingw32/bin/../lib/gcc/nios2-elf/4.1.2/../../../../nios2-elf/lib\libc.a(lib_a-s_isinfd.o)
 .debug_loc     0x0000a76d       0x18 c:/altera/13.0sp1/nios2eds/bin/gnu/h-i686-mingw32/bin/../lib/gcc/nios2-elf/4.1.2/../../../../nios2-elf/lib\libc.a(lib_a-s_isnand.o)
 .debug_loc     0x0000a785      0x21f c:/altera/13.0sp1/nios2eds/bin/gnu/h-i686-mingw32/bin/../lib/gcc/nios2-elf/4.1.2/../../../../nios2-elf/lib\libc.a(lib_a-stdio.o)
 .debug_loc     0x0000a9a4       0x97 c:/altera/13.0sp1/nios2eds/bin/gnu/h-i686-mingw32/bin/../lib/gcc/nios2-elf/4.1.2/../../../../nios2-elf/lib\libc.a(lib_a-writer.o)
 .debug_loc     0x0000aa3b       0xe9 c:/altera/13.0sp1/nios2eds/bin/gnu/h-i686-mingw32/bin/../lib/gcc/nios2-elf/4.1.2/../../../../nios2-elf/lib\libc.a(lib_a-callocr.o)
 .debug_loc     0x0000ab24       0x5b c:/altera/13.0sp1/nios2eds/bin/gnu/h-i686-mingw32/bin/../lib/gcc/nios2-elf/4.1.2/../../../../nios2-elf/lib\libc.a(lib_a-closer.o)
 .debug_loc     0x0000ab7f       0xe4 c:/altera/13.0sp1/nios2eds/bin/gnu/h-i686-mingw32/bin/../lib/gcc/nios2-elf/4.1.2/../../../../nios2-elf/lib\libc.a(lib_a-fclose.o)
 .debug_loc     0x0000ac63       0x79 c:/altera/13.0sp1/nios2eds/bin/gnu/h-i686-mingw32/bin/../lib/gcc/nios2-elf/4.1.2/../../../../nios2-elf/lib\libc.a(lib_a-fstatr.o)
 .debug_loc     0x0000acdc       0x5b c:/altera/13.0sp1/nios2eds/bin/gnu/h-i686-mingw32/bin/../lib/gcc/nios2-elf/4.1.2/../../../../nios2-elf/lib\libc.a(lib_a-isattyr.o)
 .debug_loc     0x0000ad37       0x97 c:/altera/13.0sp1/nios2eds/bin/gnu/h-i686-mingw32/bin/../lib/gcc/nios2-elf/4.1.2/../../../../nios2-elf/lib\libc.a(lib_a-lseekr.o)
 .debug_loc     0x0000adce       0x97 c:/altera/13.0sp1/nios2eds/bin/gnu/h-i686-mingw32/bin/../lib/gcc/nios2-elf/4.1.2/../../../../nios2-elf/lib\libc.a(lib_a-readr.o)
 .debug_loc     0x0000ae65      0xc12 c:/altera/13.0sp1/nios2eds/bin/gnu/h-i686-mingw32/bin/../lib/gcc/nios2-elf/4.1.2\libgcc.a(_udivdi3.o)
 .debug_loc     0x0000ba77      0xc26 c:/altera/13.0sp1/nios2eds/bin/gnu/h-i686-mingw32/bin/../lib/gcc/nios2-elf/4.1.2\libgcc.a(_umoddi3.o)
 .debug_loc     0x0000c69d      0x1df c:/altera/13.0sp1/nios2eds/bin/gnu/h-i686-mingw32/bin/../lib/gcc/nios2-elf/4.1.2\libgcc.a(_div_df.o)
 .debug_loc     0x0000c87c       0x70 c:/altera/13.0sp1/nios2eds/bin/gnu/h-i686-mingw32/bin/../lib/gcc/nios2-elf/4.1.2\libgcc.a(_eq_df.o)
 .debug_loc     0x0000c8ec       0x70 c:/altera/13.0sp1/nios2eds/bin/gnu/h-i686-mingw32/bin/../lib/gcc/nios2-elf/4.1.2\libgcc.a(_ne_df.o)
 .debug_loc     0x0000c95c       0x70 c:/altera/13.0sp1/nios2eds/bin/gnu/h-i686-mingw32/bin/../lib/gcc/nios2-elf/4.1.2\libgcc.a(_gt_df.o)
 .debug_loc     0x0000c9cc       0x70 c:/altera/13.0sp1/nios2eds/bin/gnu/h-i686-mingw32/bin/../lib/gcc/nios2-elf/4.1.2\libgcc.a(_lt_df.o)
 .debug_loc     0x0000ca3c       0x9a c:/altera/13.0sp1/nios2eds/bin/gnu/h-i686-mingw32/bin/../lib/gcc/nios2-elf/4.1.2\libgcc.a(_si_to_df.o)
 .debug_loc     0x0000cad6      0x1d2 c:/altera/13.0sp1/nios2eds/bin/gnu/h-i686-mingw32/bin/../lib/gcc/nios2-elf/4.1.2\libgcc.a(lib2-divmod.o)
 .debug_loc     0x0000cca8       0x56 ../SemaforoNet_bsp/\libucosii_bsp.a(alt_exit.o)
 .debug_loc     0x0000ccfe       0x56 ../SemaforoNet_bsp/\libucosii_bsp.a(alt_flash_dev.o)
 .debug_loc     0x0000cd54       0x56 ../SemaforoNet_bsp/\libucosii_bsp.a(alt_fstat.o)
 .debug_loc     0x0000cdaa       0x2c ../SemaforoNet_bsp/\libucosii_bsp.a(alt_irq_register.o)
 .debug_loc     0x0000cdd6       0x57 ../SemaforoNet_bsp/\libucosii_bsp.a(alt_isatty.o)
 .debug_loc     0x0000ce2d       0x56 ../SemaforoNet_bsp/\libucosii_bsp.a(alt_lseek.o)
 .debug_loc     0x0000ce83       0x2b ../SemaforoNet_bsp/\libucosii_bsp.a(alt_main.o)
 .debug_loc     0x0000ceae       0x2b ../SemaforoNet_bsp/\libucosii_bsp.a(alt_sbrk.o)
 .debug_loc     0x0000ced9       0x2b ../SemaforoNet_bsp/\libucosii_bsp.a(alt_usleep.o)
 .debug_loc     0x0000cf04       0x57 ../SemaforoNet_bsp/\libucosii_bsp.a(alt_env_lock.o)
 .debug_loc     0x0000cf5b       0x57 ../SemaforoNet_bsp/\libucosii_bsp.a(alt_malloc_lock.o)
 .debug_loc     0x0000cfb2      0x5e2 ../SemaforoNet_bsp/\libucosii_bsp.a(os_core.o)
 .debug_loc     0x0000d594       0x2b ../SemaforoNet_bsp/\libucosii_bsp.a(os_dbg.o)
 .debug_loc     0x0000d5bf      0x232 ../SemaforoNet_bsp/\libucosii_bsp.a(os_flag.o)
 .debug_loc     0x0000d7f1      0x12d ../SemaforoNet_bsp/\libucosii_bsp.a(os_mem.o)
 .debug_loc     0x0000d91e      0x1da ../SemaforoNet_bsp/\libucosii_bsp.a(os_q.o)
 .debug_loc     0x0000daf8      0x158 ../SemaforoNet_bsp/\libucosii_bsp.a(os_sem.o)
 .debug_loc     0x0000dc50      0x207 ../SemaforoNet_bsp/\libucosii_bsp.a(os_task.o)
 .debug_loc     0x0000de57       0xd7 ../SemaforoNet_bsp/\libucosii_bsp.a(os_time.o)
 .debug_loc     0x0000df2e       0x81 ../SemaforoNet_bsp/\libucosii_bsp.a(alt_sys_init.o)
 .debug_loc     0x0000dfaf      0x12e ../SemaforoNet_bsp/\libucosii_bsp.a(altera_avalon_cfi_flash.o)
 .debug_loc     0x0000e0dd      0x306 ../SemaforoNet_bsp/\libucosii_bsp.a(altera_avalon_cfi_flash_table.o)
 .debug_loc     0x0000e3e3      0x1af ../SemaforoNet_bsp/\libucosii_bsp.a(altera_avalon_epcs_flash_controller.o)
 .debug_loc     0x0000e592       0xac ../SemaforoNet_bsp/\libucosii_bsp.a(altera_avalon_jtag_uart_fd.o)
 .debug_loc     0x0000e63e       0xac ../SemaforoNet_bsp/\libucosii_bsp.a(altera_avalon_jtag_uart_init.o)
 .debug_loc     0x0000e6ea       0x2b ../SemaforoNet_bsp/\libucosii_bsp.a(altera_avalon_jtag_uart_ioctl.o)
 .debug_loc     0x0000e715       0x2c ../SemaforoNet_bsp/\libucosii_bsp.a(altera_avalon_jtag_uart_read.o)
 .debug_loc     0x0000e741       0x2c ../SemaforoNet_bsp/\libucosii_bsp.a(altera_avalon_jtag_uart_write.o)
 .debug_loc     0x0000e76d      0x184 ../SemaforoNet_bsp/\libucosii_bsp.a(altera_avalon_lcd_16207.o)
 .debug_loc     0x0000e8f1       0x2b ../SemaforoNet_bsp/\libucosii_bsp.a(altera_avalon_lcd_16207_fd.o)
 .debug_loc     0x0000e91c       0x56 ../SemaforoNet_bsp/\libucosii_bsp.a(altera_avalon_timer_sc.o)
 .debug_loc     0x0000e972       0x81 ../SemaforoNet_bsp/\libucosii_bsp.a(altera_avalon_uart_fd.o)
 .debug_loc     0x0000e9f3       0xd8 ../SemaforoNet_bsp/\libucosii_bsp.a(altera_avalon_uart_init.o)
 .debug_loc     0x0000eacb       0x57 ../SemaforoNet_bsp/\libucosii_bsp.a(altera_avalon_uart_read.o)
 .debug_loc     0x0000eb22       0x57 ../SemaforoNet_bsp/\libucosii_bsp.a(altera_avalon_uart_write.o)
 .debug_loc     0x0000eb79      0x204 ../SemaforoNet_bsp/\libucosii_bsp.a(epcs_commands.o)
 .debug_loc     0x0000ed7d       0x2b ../SemaforoNet_bsp/\libucosii_bsp.a(alt_iniche_close.o)
 .debug_loc     0x0000eda8       0x2b ../SemaforoNet_bsp/\libucosii_bsp.a(alt_iniche_dev.o)
 .debug_loc     0x0000edd3       0x2b ../SemaforoNet_bsp/\libucosii_bsp.a(alt_iniche_read.o)
 .debug_loc     0x0000edfe       0x2b ../SemaforoNet_bsp/\libucosii_bsp.a(alt_iniche_write.o)
 .debug_loc     0x0000ee29      0x102 ../SemaforoNet_bsp/\libucosii_bsp.a(ipnet.o)
 .debug_loc     0x0000ef2b       0xac ../SemaforoNet_bsp/\libucosii_bsp.a(ipstart.o)
 .debug_loc     0x0000efd7      0x159 ../SemaforoNet_bsp/\libucosii_bsp.a(igmp_cmn.o)
 .debug_loc     0x0000f130      0x1af ../SemaforoNet_bsp/\libucosii_bsp.a(bsdsock.o)
 .debug_loc     0x0000f2df       0x56 ../SemaforoNet_bsp/\libucosii_bsp.a(cksum.o)
 .debug_loc     0x0000f335      0x204 ../SemaforoNet_bsp/\libucosii_bsp.a(in_utils.o)
 .debug_loc     0x0000f539       0x81 ../SemaforoNet_bsp/\libucosii_bsp.a(netmain.o)
 .debug_loc     0x0000f5ba      0x183 ../SemaforoNet_bsp/\libucosii_bsp.a(parseip.o)
 .debug_loc     0x0000f73d      0x12f ../SemaforoNet_bsp/\libucosii_bsp.a(tk_crnos.o)
 .debug_loc     0x0000f86c      0x35c ../SemaforoNet_bsp/\libucosii_bsp.a(dhcpclnt.o)
 .debug_loc     0x0000fbc8       0x2b ../SemaforoNet_bsp/\libucosii_bsp.a(dhcputil.o)
 .debug_loc     0x0000fbf3      0x102 ../SemaforoNet_bsp/\libucosii_bsp.a(pktalloc.o)
 .debug_loc     0x0000fcf5       0x81 ../SemaforoNet_bsp/\libucosii_bsp.a(q.o)
 .debug_loc     0x0000fd76       0x56 ../SemaforoNet_bsp/\libucosii_bsp.a(udp_open.o)
 .debug_loc     0x0000fdcc      0x158 ../SemaforoNet_bsp/\libucosii_bsp.a(brdutils.o)
 .debug_loc     0x0000ff24       0xd8 ../SemaforoNet_bsp/\libucosii_bsp.a(osportco.o)
 .debug_loc     0x0000fffc      0x183 ../SemaforoNet_bsp/\libucosii_bsp.a(targnios.o)
 .debug_loc     0x0001017f      0x306 ../SemaforoNet_bsp/\libucosii_bsp.a(nptcp.o)
 .debug_loc     0x00010485       0x82 ../SemaforoNet_bsp/\libucosii_bsp.a(rawsock.o)
 .debug_loc     0x00010507      0x332 ../SemaforoNet_bsp/\libucosii_bsp.a(sockcall.o)
 .debug_loc     0x00010839      0x2b1 ../SemaforoNet_bsp/\libucosii_bsp.a(socket.o)
 .debug_loc     0x00010aea      0x3dd ../SemaforoNet_bsp/\libucosii_bsp.a(socket2.o)
 .debug_loc     0x00010ec7      0x184 ../SemaforoNet_bsp/\libucosii_bsp.a(soselect.o)
 .debug_loc     0x0001104b      0x12e ../SemaforoNet_bsp/\libucosii_bsp.a(tcp_in.o)
 .debug_loc     0x00011179       0x82 ../SemaforoNet_bsp/\libucosii_bsp.a(tcp_out.o)
 .debug_loc     0x000111fb      0x183 ../SemaforoNet_bsp/\libucosii_bsp.a(tcp_subr.o)
 .debug_loc     0x0001137e       0x81 ../SemaforoNet_bsp/\libucosii_bsp.a(tcp_timr.o)
 .debug_loc     0x000113ff       0xac ../SemaforoNet_bsp/\libucosii_bsp.a(tcp_usr.o)
 .debug_loc     0x000114ab       0x2b ../SemaforoNet_bsp/\libucosii_bsp.a(tcpport.o)
 .debug_loc     0x000114d6      0x102 ../SemaforoNet_bsp/\libucosii_bsp.a(udpsock.o)
 .debug_loc     0x000115d8       0x2b ../SemaforoNet_bsp/\libucosii_bsp.a(alt_alarm_start.o)
 .debug_loc     0x00011603       0x2b ../SemaforoNet_bsp/\libucosii_bsp.a(alt_busy_sleep.o)
 .debug_loc     0x0001162e       0x56 ../SemaforoNet_bsp/\libucosii_bsp.a(alt_close.o)
 .debug_loc     0x00011684       0x2b ../SemaforoNet_bsp/\libucosii_bsp.a(alt_dcache_flush.o)
 .debug_loc     0x000116af       0x2b ../SemaforoNet_bsp/\libucosii_bsp.a(alt_dev.o)
 .debug_loc     0x000116da       0x56 ../SemaforoNet_bsp/\libucosii_bsp.a(alt_dev_llist_insert.o)
 .debug_loc     0x00011730       0x2b ../SemaforoNet_bsp/\libucosii_bsp.a(alt_do_ctors.o)
 .debug_loc     0x0001175b       0x2b ../SemaforoNet_bsp/\libucosii_bsp.a(alt_do_dtors.o)
 .debug_loc     0x00011786       0x2b ../SemaforoNet_bsp/\libucosii_bsp.a(alt_find_dev.o)
 .debug_loc     0x000117b1       0xac ../SemaforoNet_bsp/\libucosii_bsp.a(alt_iic.o)
 .debug_loc     0x0001185d       0x2b ../SemaforoNet_bsp/\libucosii_bsp.a(alt_iic_isr_register.o)
 .debug_loc     0x00011888       0x56 ../SemaforoNet_bsp/\libucosii_bsp.a(alt_io_redirect.o)
 .debug_loc     0x000118de       0x2b ../SemaforoNet_bsp/\libucosii_bsp.a(alt_irq_handler.o)
 .debug_loc     0x00011909       0x81 ../SemaforoNet_bsp/\libucosii_bsp.a(alt_open.o)
 .debug_loc     0x0001198a       0x56 ../SemaforoNet_bsp/\libucosii_bsp.a(alt_read.o)
 .debug_loc     0x000119e0       0x2b ../SemaforoNet_bsp/\libucosii_bsp.a(alt_release_fd.o)
 .debug_loc     0x00011a0b       0x2b ../SemaforoNet_bsp/\libucosii_bsp.a(alt_remap_cached.o)
 .debug_loc     0x00011a36       0x2b ../SemaforoNet_bsp/\libucosii_bsp.a(alt_remap_uncached.o)
 .debug_loc     0x00011a61       0x56 ../SemaforoNet_bsp/\libucosii_bsp.a(alt_tick.o)
 .debug_loc     0x00011ab7       0x56 ../SemaforoNet_bsp/\libucosii_bsp.a(alt_write.o)
 .debug_loc     0x00011b0d       0x2b ../SemaforoNet_bsp/\libucosii_bsp.a(altera_nios2_qsys_irq.o)
 .debug_loc     0x00011b38      0x1ae ../SemaforoNet_bsp/\libucosii_bsp.a(os_cpu_c.o)
 .debug_loc     0x00011ce6       0xac ../SemaforoNet_bsp/\libucosii_bsp.a(altera_avalon_cfi_flash_amd.o)
 .debug_loc     0x00011d92       0xac ../SemaforoNet_bsp/\libucosii_bsp.a(altera_avalon_cfi_flash_intel.o)
 .debug_loc     0x00011e3e       0x2b ../SemaforoNet_bsp/\libucosii_bsp.a(altera_avalon_spi.o)
 .debug_loc     0x00011e69      0x12d ../SemaforoNet_bsp/\libucosii_bsp.a(allports.o)
 .debug_loc     0x00011f96       0xac ../SemaforoNet_bsp/\libucosii_bsp.a(timeouts.o)
 .debug_loc     0x00012042       0x56 ../SemaforoNet_bsp/\libucosii_bsp.a(tk_misc.o)
 .debug_loc     0x00012098       0x2b ../SemaforoNet_bsp/\libucosii_bsp.a(alt_iniche_fcntl.o)
 .debug_loc     0x000120c3      0x204 ../SemaforoNet_bsp/\libucosii_bsp.a(et_arp.o)
 .debug_loc     0x000122c7       0xac ../SemaforoNet_bsp/\libucosii_bsp.a(iface.o)
 .debug_loc     0x00012373      0x207 ../SemaforoNet_bsp/\libucosii_bsp.a(ip.o)
 .debug_loc     0x0001257a      0x2b2 ../SemaforoNet_bsp/\libucosii_bsp.a(ip_reasm.o)
 .debug_loc     0x0001282c       0x81 ../SemaforoNet_bsp/\libucosii_bsp.a(ipdemux.o)
 .debug_loc     0x000128ad       0x81 ../SemaforoNet_bsp/\libucosii_bsp.a(ipmc.o)
 .debug_loc     0x0001292e       0x81 ../SemaforoNet_bsp/\libucosii_bsp.a(ipport.o)
 .debug_loc     0x000129af      0x102 ../SemaforoNet_bsp/\libucosii_bsp.a(ipraw.o)
 .debug_loc     0x00012ab1       0x81 ../SemaforoNet_bsp/\libucosii_bsp.a(iproute.o)
 .debug_loc     0x00012b32      0x12f ../SemaforoNet_bsp/\libucosii_bsp.a(udp.o)
 .debug_loc     0x00012c61       0x2b ../SemaforoNet_bsp/\libucosii_bsp.a(igmp.o)
 .debug_loc     0x00012c8c       0xd7 ../SemaforoNet_bsp/\libucosii_bsp.a(igmp2.o)
 .debug_loc     0x00012d63       0xac ../SemaforoNet_bsp/\libucosii_bsp.a(ipopt.o)
 .debug_loc     0x00012e0f       0x57 ../SemaforoNet_bsp/\libucosii_bsp.a(u_mctest.o)
 .debug_loc     0x00012e66       0x56 ../SemaforoNet_bsp/\libucosii_bsp.a(dhcsetup.o)
 .debug_loc     0x00012ebc      0x183 ../SemaforoNet_bsp/\libucosii_bsp.a(memdev.o)
 .debug_loc     0x0001303f       0x2b ../SemaforoNet_bsp/\libucosii_bsp.a(tcpcksum.o)
 .debug_loc     0x0001306a      0x158 ../SemaforoNet_bsp/\libucosii_bsp.a(in_pcb.o)
 .debug_loc     0x000131c2      0x4b4 ../SemaforoNet_bsp/\libucosii_bsp.a(vfsfiles.o)
 .debug_loc     0x00013676       0x2b ../SemaforoNet_bsp/\libucosii_bsp.a(vfsport.o)
 .debug_loc     0x000136a1       0x56 ../SemaforoNet_bsp/\libucosii_bsp.a(alt_fcntl.o)
 .debug_loc     0x000136f7       0x2b ../SemaforoNet_bsp/\libucosii_bsp.a(alt_find_file.o)
 .debug_loc     0x00013722       0x2b ../SemaforoNet_bsp/\libucosii_bsp.a(alt_get_fd.o)
 .debug_loc     0x0001374d       0xad ../SemaforoNet_bsp/\libucosii_bsp.a(icmp.o)
 .debug_loc     0x000137fa       0x1e c:/altera/13.0sp1/nios2eds/bin/gnu/h-i686-mingw32/bin/../lib/gcc/nios2-elf/4.1.2/../../../../nios2-elf/lib\libc.a(lib_a-atexit.o)
 .debug_loc     0x00013818       0x39 c:/altera/13.0sp1/nios2eds/bin/gnu/h-i686-mingw32/bin/../lib/gcc/nios2-elf/4.1.2/../../../../nios2-elf/lib\libc.a(lib_a-atoi.o)
 .debug_loc     0x00013851       0x3c c:/altera/13.0sp1/nios2eds/bin/gnu/h-i686-mingw32/bin/../lib/gcc/nios2-elf/4.1.2/../../../../nios2-elf/lib\libc.a(lib_a-calloc.o)
 .debug_loc     0x0001388d      0x114 c:/altera/13.0sp1/nios2eds/bin/gnu/h-i686-mingw32/bin/../lib/gcc/nios2-elf/4.1.2/../../../../nios2-elf/lib\libc.a(lib_a-memcmp.o)
 .debug_loc     0x000139a1       0x8b c:/altera/13.0sp1/nios2eds/bin/gnu/h-i686-mingw32/bin/../lib/gcc/nios2-elf/4.1.2/../../../../nios2-elf/lib\libc.a(lib_a-strcpy.o)
 .debug_loc     0x00013a2c       0x78 c:/altera/13.0sp1/nios2eds/bin/gnu/h-i686-mingw32/bin/../lib/gcc/nios2-elf/4.1.2/../../../../nios2-elf/lib\libc.a(lib_a-strncmp.o)
 .debug_loc     0x00013aa4       0x8b c:/altera/13.0sp1/nios2eds/bin/gnu/h-i686-mingw32/bin/../lib/gcc/nios2-elf/4.1.2/../../../../nios2-elf/lib\libc.a(lib_a-vprintf.o)
 .debug_loc     0x00013b2f       0xd1 c:/altera/13.0sp1/nios2eds/bin/gnu/h-i686-mingw32/bin/../lib/gcc/nios2-elf/4.1.2/../../../../nios2-elf/lib\libc.a(lib_a-vsprintf.o)
 .debug_loc     0x00013c00      0x120 c:/altera/13.0sp1/nios2eds/bin/gnu/h-i686-mingw32/bin/../lib/gcc/nios2-elf/4.1.2/../../../../nios2-elf/lib\libc.a(lib_a-__atexit.o)

.debug_macinfo
 *(.debug_macinfo)

.debug_weaknames
 *(.debug_weaknames)

.debug_funcnames
 *(.debug_funcnames)

.debug_typenames
 *(.debug_typenames)

.debug_varnames
 *(.debug_varnames)

.debug_alt_sim_info
                0x00000000       0x50
 *(.debug_alt_sim_info)
 .debug_alt_sim_info
                0x00000000       0x20 ../SemaforoNet_bsp//obj/HAL/src/crt0.o
 .debug_alt_sim_info
                0x00000020       0x30 ../SemaforoNet_bsp/\libucosii_bsp.a(alt_busy_sleep.o)
                0x01000000                __alt_data_end = 0x1000000
                0x01000000                PROVIDE (__alt_stack_pointer, __alt_data_end)
                0x00857598                PROVIDE (__alt_stack_limit, __alt_stack_base)
                0x00857598                PROVIDE (__alt_heap_start, end)
                0x01000000                PROVIDE (__alt_heap_limit, 0x1000000)
OUTPUT(SemaforoNet.elf elf32-littlenios2)

.debug_ranges   0x00000000      0x9a0
 .debug_ranges  0x00000000       0x30 c:/altera/13.0sp1/nios2eds/bin/gnu/h-i686-mingw32/bin/../lib/gcc/nios2-elf/4.1.2\libgcc.a(_addsub_df.o)
 .debug_ranges  0x00000030       0x88 c:/altera/13.0sp1/nios2eds/bin/gnu/h-i686-mingw32/bin/../lib/gcc/nios2-elf/4.1.2\libgcc.a(_mul_df.o)
 .debug_ranges  0x000000b8       0x18 c:/altera/13.0sp1/nios2eds/bin/gnu/h-i686-mingw32/bin/../lib/gcc/nios2-elf/4.1.2\libgcc.a(_usi_to_df.o)
 .debug_ranges  0x000000d0       0x68 c:/altera/13.0sp1/nios2eds/bin/gnu/h-i686-mingw32/bin/../lib/gcc/nios2-elf/4.1.2\libgcc.a(_muldi3.o)
 .debug_ranges  0x00000138       0x28 c:/altera/13.0sp1/nios2eds/bin/gnu/h-i686-mingw32/bin/../lib/gcc/nios2-elf/4.1.2\libgcc.a(_clzsi2.o)
 .debug_ranges  0x00000160       0x28 c:/altera/13.0sp1/nios2eds/bin/gnu/h-i686-mingw32/bin/../lib/gcc/nios2-elf/4.1.2\libgcc.a(_pack_df.o)
 .debug_ranges  0x00000188       0x70 c:/altera/13.0sp1/nios2eds/bin/gnu/h-i686-mingw32/bin/../lib/gcc/nios2-elf/4.1.2/../../../../nios2-elf/lib\libc.a(lib_a-mallocr.o)
 .debug_ranges  0x000001f8      0x168 c:/altera/13.0sp1/nios2eds/bin/gnu/h-i686-mingw32/bin/../lib/gcc/nios2-elf/4.1.2/../../../../nios2-elf/lib\libc.a(lib_a-vfprintf.o)
 .debug_ranges  0x00000360       0x18 c:/altera/13.0sp1/nios2eds/bin/gnu/h-i686-mingw32/bin/../lib/gcc/nios2-elf/4.1.2/../../../../nios2-elf/lib\libc.a(lib_a-__call_atexit.o)
 .debug_ranges  0x00000378       0x20 c:/altera/13.0sp1/nios2eds/bin/gnu/h-i686-mingw32/bin/../lib/gcc/nios2-elf/4.1.2/../../../../nios2-elf/lib\libc.a(lib_a-fflush.o)
 .debug_ranges  0x00000398       0x28 c:/altera/13.0sp1/nios2eds/bin/gnu/h-i686-mingw32/bin/../lib/gcc/nios2-elf/4.1.2/../../../../nios2-elf/lib\libc.a(lib_a-fvwrite.o)
 .debug_ranges  0x000003c0       0xa0 c:/altera/13.0sp1/nios2eds/bin/gnu/h-i686-mingw32/bin/../lib/gcc/nios2-elf/4.1.2/../../../../nios2-elf/lib\libc.a(lib_a-fwalk.o)
 .debug_ranges  0x00000460      0x110 c:/altera/13.0sp1/nios2eds/bin/gnu/h-i686-mingw32/bin/../lib/gcc/nios2-elf/4.1.2/../../../../nios2-elf/lib\libc.a(lib_a-reallocr.o)
 .debug_ranges  0x00000570       0x38 c:/altera/13.0sp1/nios2eds/bin/gnu/h-i686-mingw32/bin/../lib/gcc/nios2-elf/4.1.2/../../../../nios2-elf/lib\libc.a(lib_a-callocr.o)
 .debug_ranges  0x000005a8      0x188 c:/altera/13.0sp1/nios2eds/bin/gnu/h-i686-mingw32/bin/../lib/gcc/nios2-elf/4.1.2\libgcc.a(_udivdi3.o)
 .debug_ranges  0x00000730      0x198 c:/altera/13.0sp1/nios2eds/bin/gnu/h-i686-mingw32/bin/../lib/gcc/nios2-elf/4.1.2\libgcc.a(_umoddi3.o)
 .debug_ranges  0x000008c8       0x50 c:/altera/13.0sp1/nios2eds/bin/gnu/h-i686-mingw32/bin/../lib/gcc/nios2-elf/4.1.2\libgcc.a(_div_df.o)
 .debug_ranges  0x00000918       0x18 ../SemaforoNet_bsp/\libucosii_bsp.a(altera_avalon_jtag_uart_init.o)
 .debug_ranges  0x00000930       0x18 ../SemaforoNet_bsp/\libucosii_bsp.a(altera_avalon_uart_init.o)
 .debug_ranges  0x00000948       0x28 ../SemaforoNet_bsp/\libucosii_bsp.a(alt_irq_entry.o)
 .debug_ranges  0x00000970       0x30 ../SemaforoNet_bsp/\libucosii_bsp.a(alt_exception_entry.o)
